	.file	"1684a.cpp"
 # GNU C++14 (x86_64-posix-seh-rev0, Built by MinGW-W64 project) version 8.1.0 (x86_64-w64-mingw32)
 #	compiled by GNU C version 8.1.0, GMP version 6.1.2, MPFR version 4.0.1, MPC version 1.1.0, isl version isl-0.18-GMP

 # GGC heuristics: --param ggc-min-expand=100 --param ggc-min-heapsize=131072
 # options passed:  -fpreprocessed 1684a.ii -mtune=core2 -march=nocona
 # -fverbose-asm
 # options enabled:  -faggressive-loop-optimizations
 # -fasynchronous-unwind-tables -fauto-inc-dec -fchkp-check-incomplete-type
 # -fchkp-check-read -fchkp-check-write -fchkp-instrument-calls
 # -fchkp-narrow-bounds -fchkp-optimize -fchkp-store-bounds
 # -fchkp-use-static-bounds -fchkp-use-static-const-bounds
 # -fchkp-use-wrappers -fcommon -fdelete-null-pointer-checks
 # -fdwarf2-cfi-asm -fearly-inlining -feliminate-unused-debug-types
 # -fexceptions -ffp-int-builtin-inexact -ffunction-cse -fgcse-lm
 # -fgnu-runtime -fgnu-unique -fident -finline-atomics -fira-hoist-pressure
 # -fira-share-save-slots -fira-share-spill-slots -fivopts
 # -fkeep-inline-dllexport -fkeep-static-consts -fleading-underscore
 # -flifetime-dse -flto-odr-type-merging -fmath-errno -fmerge-debug-strings
 # -fpeephole -fpic -fplt -fprefetch-loop-arrays -freg-struct-return
 # -fsched-critical-path-heuristic -fsched-dep-count-heuristic
 # -fsched-group-heuristic -fsched-interblock -fsched-last-insn-heuristic
 # -fsched-rank-heuristic -fsched-spec -fsched-spec-insn-heuristic
 # -fsched-stalled-insns-dep -fschedule-fusion -fsemantic-interposition
 # -fset-stack-executable -fshow-column -fshrink-wrap-separate
 # -fsigned-zeros -fsplit-ivs-in-unroller -fssa-backprop -fstdarg-opt
 # -fstrict-volatile-bitfields -fsync-libcalls -ftrapping-math
 # -ftree-cselim -ftree-forwprop -ftree-loop-if-convert -ftree-loop-im
 # -ftree-loop-ivcanon -ftree-loop-optimize -ftree-parallelize-loops=
 # -ftree-phiprop -ftree-reassoc -ftree-scev-cprop -funit-at-a-time
 # -funwind-tables -fverbose-asm -fzero-initialized-in-bss
 # -m128bit-long-double -m64 -m80387 -maccumulate-outgoing-args
 # -malign-double -malign-stringops -mcx16 -mfancy-math-387 -mfentry
 # -mfp-ret-in-387 -mfxsr -mieee-fp -mlong-double-80 -mmmx -mms-bitfields
 # -mno-sse4 -mpush-args -mred-zone -msse -msse2 -msse3 -mstack-arg-probe
 # -mstackrealign -mvzeroupper

	.text
	.section .rdata,"dr"
_ZStL19piecewise_construct:
	.space 1
	.section	.text$_ZN9__gnu_cxx5__ops16__iter_less_iterEv,"x"
	.linkonce discard
	.globl	_ZN9__gnu_cxx5__ops16__iter_less_iterEv
	.def	_ZN9__gnu_cxx5__ops16__iter_less_iterEv;	.scl	2;	.type	32;	.endef
	.seh_proc	_ZN9__gnu_cxx5__ops16__iter_less_iterEv
_ZN9__gnu_cxx5__ops16__iter_less_iterEv:
.LFB560:
	.seh_endprologue
 # C:/Program Files/CodeBlocks/MinGW/lib/gcc/x86_64-w64-mingw32/8.1.0/include/c++/bits/predefined_ops.h:49:   { return _Iter_less_iter(); }
	ret	
	.seh_endproc
	.section .rdata,"dr"
_ZStL13allocator_arg:
	.space 1
_ZStL6ignore:
	.space 1
.lcomm _ZStL8__ioinit,1,1
	.align 4
_ZN9__gnu_cxxL21__default_lock_policyE:
	.long	2
_ZStL10defer_lock:
	.space 1
_ZStL11try_to_lock:
	.space 1
_ZStL10adopt_lock:
	.space 1
	.align 4
_ZNSt15regex_constantsL5icaseE:
	.long	1
	.align 4
_ZNSt15regex_constantsL6nosubsE:
	.long	2
	.align 4
_ZNSt15regex_constantsL8optimizeE:
	.long	4
	.align 4
_ZNSt15regex_constantsL7collateE:
	.long	8
	.align 4
_ZNSt15regex_constantsL10ECMAScriptE:
	.long	16
	.align 4
_ZNSt15regex_constantsL5basicE:
	.long	32
	.align 4
_ZNSt15regex_constantsL8extendedE:
	.long	64
	.align 4
_ZNSt15regex_constantsL3awkE:
	.long	128
	.align 4
_ZNSt15regex_constantsL4grepE:
	.long	256
	.align 4
_ZNSt15regex_constantsL5egrepE:
	.long	512
	.align 4
_ZNSt15regex_constantsL12__polynomialE:
	.long	1024
	.align 4
_ZNSt15regex_constantsL13match_defaultE:
	.space 4
	.align 4
_ZNSt15regex_constantsL13match_not_bolE:
	.long	1
	.align 4
_ZNSt15regex_constantsL13match_not_eolE:
	.long	2
	.align 4
_ZNSt15regex_constantsL13match_not_bowE:
	.long	4
	.align 4
_ZNSt15regex_constantsL13match_not_eowE:
	.long	8
	.align 4
_ZNSt15regex_constantsL9match_anyE:
	.long	16
	.align 4
_ZNSt15regex_constantsL14match_not_nullE:
	.long	32
	.align 4
_ZNSt15regex_constantsL16match_continuousE:
	.long	64
	.align 4
_ZNSt15regex_constantsL16match_prev_availE:
	.long	128
	.align 4
_ZNSt15regex_constantsL14format_defaultE:
	.space 4
	.align 4
_ZNSt15regex_constantsL10format_sedE:
	.long	256
	.align 4
_ZNSt15regex_constantsL14format_no_copyE:
	.long	512
	.align 4
_ZNSt15regex_constantsL17format_first_onlyE:
	.long	1024
	.align 4
_ZNSt15regex_constantsL13error_collateE:
	.space 4
	.align 4
_ZNSt15regex_constantsL11error_ctypeE:
	.long	1
	.align 4
_ZNSt15regex_constantsL12error_escapeE:
	.long	2
	.align 4
_ZNSt15regex_constantsL13error_backrefE:
	.long	3
	.align 4
_ZNSt15regex_constantsL11error_brackE:
	.long	4
	.align 4
_ZNSt15regex_constantsL11error_parenE:
	.long	5
	.align 4
_ZNSt15regex_constantsL11error_braceE:
	.long	6
	.align 4
_ZNSt15regex_constantsL14error_badbraceE:
	.long	7
	.align 4
_ZNSt15regex_constantsL11error_rangeE:
	.long	8
	.align 4
_ZNSt15regex_constantsL11error_spaceE:
	.long	9
	.align 4
_ZNSt15regex_constantsL15error_badrepeatE:
	.long	10
	.align 4
_ZNSt15regex_constantsL16error_complexityE:
	.long	11
	.align 4
_ZNSt15regex_constantsL11error_stackE:
	.long	12
	.align 4
_ZNSt8__detailL19_S_invalid_state_idE:
	.long	-1
	.align 4
_ZL3MAX:
	.long	200005
	.text
	.globl	_Z5solvev
	.def	_Z5solvev;	.scl	2;	.type	32;	.endef
	.seh_proc	_Z5solvev
_Z5solvev:
.LFB8745:
	pushq	%rbp	 #
	.seh_pushreg	%rbp
	pushq	%rbx	 #
	.seh_pushreg	%rbx
	subq	$88, %rsp	 #,
	.seh_stackalloc	88
	leaq	128(%rsp), %rbp	 #,
	.seh_setframe	%rbp, 128
	.seh_endprologue
 # 1684a.cpp:29:     string s;
	leaq	-96(%rbp), %rax	 #, tmp100
	movq	%rax, %rcx	 # tmp100,
	call	_ZNSt7__cxx1112basic_stringIcSt11char_traitsIcESaIcEEC1Ev	 #
 # 1684a.cpp:30:     cin>>s;
	leaq	-96(%rbp), %rax	 #, tmp101
	movq	%rax, %rdx	 # tmp101,
	movq	.refptr._ZSt3cin(%rip), %rcx	 #,
.LEHB0:
	call	_ZStrsIcSt11char_traitsIcESaIcEERSt13basic_istreamIT_T0_ES7_RNSt7__cxx1112basic_stringIS4_S5_T1_EE	 #
 # 1684a.cpp:31:     if(s.size()<3) {
	leaq	-96(%rbp), %rax	 #, tmp102
	movq	%rax, %rcx	 # tmp102,
	call	_ZNKSt7__cxx1112basic_stringIcSt11char_traitsIcESaIcEE4sizeEv	 #
 # 1684a.cpp:31:     if(s.size()<3) {
	cmpq	$2, %rax	 #, _1
	setbe	%al	 #, retval.0_14
 # 1684a.cpp:31:     if(s.size()<3) {
	testb	%al, %al	 # retval.0_14
	je	.L4	 #,
 # 1684a.cpp:32:         reverse(all(s));
	leaq	-96(%rbp), %rax	 #, tmp103
	movq	%rax, %rcx	 # tmp103,
	call	_ZNSt7__cxx1112basic_stringIcSt11char_traitsIcESaIcEE3endEv	 #
	movq	%rax, %rbx	 #, D.178754
	leaq	-96(%rbp), %rax	 #, tmp104
	movq	%rax, %rcx	 # tmp104,
	call	_ZNSt7__cxx1112basic_stringIcSt11char_traitsIcESaIcEE5beginEv	 #
	movq	%rbx, %rdx	 # D.178754,
	movq	%rax, %rcx	 # D.178755,
	call	_ZSt7reverseIN9__gnu_cxx17__normal_iteratorIPcNSt7__cxx1112basic_stringIcSt11char_traitsIcESaIcEEEEEEvT_SA_	 #
 # 1684a.cpp:33:         cout<<s[0];
	leaq	-96(%rbp), %rax	 #, tmp105
	movl	$0, %edx	 #,
	movq	%rax, %rcx	 # tmp105,
	call	_ZNSt7__cxx1112basic_stringIcSt11char_traitsIcESaIcEEixEy	 #
	movzbl	(%rax), %eax	 # *_2, _3
	movsbl	%al, %eax	 # _3, _4
	movl	%eax, %edx	 # _4,
	movq	.refptr._ZSt4cout(%rip), %rcx	 #,
	call	_ZStlsISt11char_traitsIcEERSt13basic_ostreamIcT_ES5_c	 #
	jmp	.L5	 #
.L4:
 # 1684a.cpp:36:         cout<<*min_element(all(s));
	leaq	-96(%rbp), %rax	 #, tmp106
	movq	%rax, %rcx	 # tmp106,
	call	_ZNSt7__cxx1112basic_stringIcSt11char_traitsIcESaIcEE3endEv	 #
	movq	%rax, %rbx	 #, D.178757
	leaq	-96(%rbp), %rax	 #, tmp107
	movq	%rax, %rcx	 # tmp107,
	call	_ZNSt7__cxx1112basic_stringIcSt11char_traitsIcESaIcEE5beginEv	 #
	movq	%rbx, %rdx	 # D.178757,
	movq	%rax, %rcx	 # D.178758,
	call	_ZSt11min_elementIN9__gnu_cxx17__normal_iteratorIPcNSt7__cxx1112basic_stringIcSt11char_traitsIcESaIcEEEEEET_SA_SA_	 #
	movq	%rax, -56(%rbp)	 # tmp109, D.166550
	leaq	-56(%rbp), %rax	 #, tmp110
	movq	%rax, %rcx	 # tmp110,
	call	_ZNK9__gnu_cxx17__normal_iteratorIPcNSt7__cxx1112basic_stringIcSt11char_traitsIcESaIcEEEEdeEv	 #
 # 1684a.cpp:36:         cout<<*min_element(all(s));
	movzbl	(%rax), %eax	 # *_5, _6
 # 1684a.cpp:36:         cout<<*min_element(all(s));
	movsbl	%al, %eax	 # _6, _7
	movl	%eax, %edx	 # _7,
	movq	.refptr._ZSt4cout(%rip), %rcx	 #,
	call	_ZStlsISt11char_traitsIcEERSt13basic_ostreamIcT_ES5_c	 #
.L5:
 # 1684a.cpp:37:     cout<<'\n';
	movl	$10, %edx	 #,
	movq	.refptr._ZSt4cout(%rip), %rcx	 #,
	call	_ZStlsISt11char_traitsIcEERSt13basic_ostreamIcT_ES5_c	 #
.LEHE0:
 # 1684a.cpp:29:     string s;
	leaq	-96(%rbp), %rax	 #, tmp111
	movq	%rax, %rcx	 # tmp111,
	call	_ZNSt7__cxx1112basic_stringIcSt11char_traitsIcESaIcEED1Ev	 #
 # 1684a.cpp:38: }
	jmp	.L8	 #
.L7:
	movq	%rax, %rbx	 #, tmp113
 # 1684a.cpp:29:     string s;
	leaq	-96(%rbp), %rax	 #, tmp112
	movq	%rax, %rcx	 # tmp112,
	call	_ZNSt7__cxx1112basic_stringIcSt11char_traitsIcESaIcEED1Ev	 #
	movq	%rbx, %rax	 # tmp113, D.178859
	movq	%rax, %rcx	 # D.178859,
.LEHB1:
	call	_Unwind_Resume	 #
	nop	
.LEHE1:
.L8:
 # 1684a.cpp:38: }
	addq	$88, %rsp	 #,
	popq	%rbx	 #
	popq	%rbp	 #
	ret	
	.def	__gxx_personality_seh0;	.scl	2;	.type	32;	.endef
	.seh_handler	__gxx_personality_seh0, @unwind, @except
	.seh_handlerdata
.LLSDA8745:
	.byte	0xff
	.byte	0xff
	.byte	0x1
	.uleb128 .LLSDACSE8745-.LLSDACSB8745
.LLSDACSB8745:
	.uleb128 .LEHB0-.LFB8745
	.uleb128 .LEHE0-.LEHB0
	.uleb128 .L7-.LFB8745
	.uleb128 0
	.uleb128 .LEHB1-.LFB8745
	.uleb128 .LEHE1-.LEHB1
	.uleb128 0
	.uleb128 0
.LLSDACSE8745:
	.text
	.seh_endproc
	.def	__main;	.scl	2;	.type	32;	.endef
	.globl	main
	.def	main;	.scl	2;	.type	32;	.endef
	.seh_proc	main
main:
.LFB8746:
	pushq	%rbp	 #
	.seh_pushreg	%rbp
	movq	%rsp, %rbp	 #,
	.seh_setframe	%rbp, 0
	subq	$48, %rsp	 #,
	.seh_stackalloc	48
	.seh_endprologue
 # 1684a.cpp:39: int main() {
	call	__main	 #
 # 1684a.cpp:40:     ios::sync_with_stdio(0),cin.tie(0);
	movl	$0, %ecx	 #,
	call	_ZNSt8ios_base15sync_with_stdioEb	 #
 # 1684a.cpp:40:     ios::sync_with_stdio(0),cin.tie(0);
	movl	$0, %edx	 #,
	movq	.refptr._ZSt3cin(%rip), %rax	 #, tmp92
	leaq	16(%rax), %rcx	 #,
	call	_ZNSt9basic_iosIcSt11char_traitsIcEE3tieEPSo	 #
 # 1684a.cpp:41:     int t=1;
	movl	$1, -4(%rbp)	 #, t
 # 1684a.cpp:42:     cin>>t;
	leaq	-4(%rbp), %rax	 #, tmp93
	movq	%rax, %rdx	 # tmp93,
	movq	.refptr._ZSt3cin(%rip), %rcx	 #,
	call	_ZNSirsERi	 #
.L11:
 # 1684a.cpp:43:     while(t--)
	movl	-4(%rbp), %eax	 # t, t.7_1
	leal	-1(%rax), %edx	 #, _3
	movl	%edx, -4(%rbp)	 # _3, t
	testl	%eax, %eax	 # t.7_1
	setne	%al	 #, retval.6_12
	testb	%al, %al	 # retval.6_12
	je	.L10	 #,
 # 1684a.cpp:44:         solve();
	call	_Z5solvev	 #
 # 1684a.cpp:43:     while(t--)
	jmp	.L11	 #
.L10:
 # 1684a.cpp:45: }
	movl	$0, %eax	 #, _15
	addq	$48, %rsp	 #,
	popq	%rbp	 #
	ret	
	.seh_endproc
	.section	.text$_ZSt7reverseIN9__gnu_cxx17__normal_iteratorIPcNSt7__cxx1112basic_stringIcSt11char_traitsIcESaIcEEEEEEvT_SA_,"x"
	.linkonce discard
	.globl	_ZSt7reverseIN9__gnu_cxx17__normal_iteratorIPcNSt7__cxx1112basic_stringIcSt11char_traitsIcESaIcEEEEEEvT_SA_
	.def	_ZSt7reverseIN9__gnu_cxx17__normal_iteratorIPcNSt7__cxx1112basic_stringIcSt11char_traitsIcESaIcEEEEEEvT_SA_;	.scl	2;	.type	32;	.endef
	.seh_proc	_ZSt7reverseIN9__gnu_cxx17__normal_iteratorIPcNSt7__cxx1112basic_stringIcSt11char_traitsIcESaIcEEEEEEvT_SA_
_ZSt7reverseIN9__gnu_cxx17__normal_iteratorIPcNSt7__cxx1112basic_stringIcSt11char_traitsIcESaIcEEEEEEvT_SA_:
.LFB9311:
	pushq	%rbp	 #
	.seh_pushreg	%rbp
	pushq	%rbx	 #
	.seh_pushreg	%rbx
	subq	$56, %rsp	 #,
	.seh_stackalloc	56
	leaq	128(%rsp), %rbp	 #,
	.seh_setframe	%rbp, 128
	.seh_endprologue
	movq	%rcx, -48(%rbp)	 # __first, __first
	movq	%rdx, -40(%rbp)	 # __last, __last
 # C:/Program Files/CodeBlocks/MinGW/lib/gcc/x86_64-w64-mingw32/8.1.0/include/c++/bits/stl_algo.h:1186:       std::__reverse(__first, __last, std::__iterator_category(__first));
	leaq	-48(%rbp), %rcx	 #,
	call	_ZSt19__iterator_categoryIN9__gnu_cxx17__normal_iteratorIPcNSt7__cxx1112basic_stringIcSt11char_traitsIcESaIcEEEEEENSt15iterator_traitsIT_E17iterator_categoryERKSB_	 #
 # C:/Program Files/CodeBlocks/MinGW/lib/gcc/x86_64-w64-mingw32/8.1.0/include/c++/bits/stl_algo.h:1186:       std::__reverse(__first, __last, std::__iterator_category(__first));
	movq	-40(%rbp), %rax	 # __last, tmp88
	movl	%ebx, %r8d	 # D.178767,
	movq	%rax, %rdx	 # tmp88,
	movq	-48(%rbp), %rcx	 # __first,
	call	_ZSt9__reverseIN9__gnu_cxx17__normal_iteratorIPcNSt7__cxx1112basic_stringIcSt11char_traitsIcESaIcEEEEEEvT_SA_St26random_access_iterator_tag	 #
 # C:/Program Files/CodeBlocks/MinGW/lib/gcc/x86_64-w64-mingw32/8.1.0/include/c++/bits/stl_algo.h:1187:     }
	nop	
	addq	$56, %rsp	 #,
	popq	%rbx	 #
	popq	%rbp	 #
	ret	
	.seh_endproc
	.section	.text$_ZSt11min_elementIN9__gnu_cxx17__normal_iteratorIPcNSt7__cxx1112basic_stringIcSt11char_traitsIcESaIcEEEEEET_SA_SA_,"x"
	.linkonce discard
	.globl	_ZSt11min_elementIN9__gnu_cxx17__normal_iteratorIPcNSt7__cxx1112basic_stringIcSt11char_traitsIcESaIcEEEEEET_SA_SA_
	.def	_ZSt11min_elementIN9__gnu_cxx17__normal_iteratorIPcNSt7__cxx1112basic_stringIcSt11char_traitsIcESaIcEEEEEET_SA_SA_;	.scl	2;	.type	32;	.endef
	.seh_proc	_ZSt11min_elementIN9__gnu_cxx17__normal_iteratorIPcNSt7__cxx1112basic_stringIcSt11char_traitsIcESaIcEEEEEET_SA_SA_
_ZSt11min_elementIN9__gnu_cxx17__normal_iteratorIPcNSt7__cxx1112basic_stringIcSt11char_traitsIcESaIcEEEEEET_SA_SA_:
.LFB9314:
	pushq	%rbp	 #
	.seh_pushreg	%rbp
	pushq	%rbx	 #
	.seh_pushreg	%rbx
	subq	$56, %rsp	 #,
	.seh_stackalloc	56
	leaq	128(%rsp), %rbp	 #,
	.seh_setframe	%rbp, 128
	.seh_endprologue
	movq	%rcx, -48(%rbp)	 # __first, __first
	movq	%rdx, -40(%rbp)	 # __last, __last
 # C:/Program Files/CodeBlocks/MinGW/lib/gcc/x86_64-w64-mingw32/8.1.0/include/c++/bits/stl_algo.h:5620: 				__gnu_cxx::__ops::__iter_less_iter());
	call	_ZN9__gnu_cxx5__ops16__iter_less_iterEv	 #
 # C:/Program Files/CodeBlocks/MinGW/lib/gcc/x86_64-w64-mingw32/8.1.0/include/c++/bits/stl_algo.h:5619:       return _GLIBCXX_STD_A::__min_element(__first, __last,
	movq	-40(%rbp), %rax	 # __last, tmp90
	movl	%ebx, %r8d	 # D.178791,
	movq	%rax, %rdx	 # tmp90,
	movq	-48(%rbp), %rcx	 # __first,
	call	_ZSt13__min_elementIN9__gnu_cxx17__normal_iteratorIPcNSt7__cxx1112basic_stringIcSt11char_traitsIcESaIcEEEEENS0_5__ops15_Iter_less_iterEET_SC_SC_T0_	 #
 # C:/Program Files/CodeBlocks/MinGW/lib/gcc/x86_64-w64-mingw32/8.1.0/include/c++/bits/stl_algo.h:5620: 				__gnu_cxx::__ops::__iter_less_iter());
	nop	
 # C:/Program Files/CodeBlocks/MinGW/lib/gcc/x86_64-w64-mingw32/8.1.0/include/c++/bits/stl_algo.h:5621:     }
	addq	$56, %rsp	 #,
	popq	%rbx	 #
	popq	%rbp	 #
	ret	
	.seh_endproc
	.section	.text$_ZNK9__gnu_cxx17__normal_iteratorIPcNSt7__cxx1112basic_stringIcSt11char_traitsIcESaIcEEEEdeEv,"x"
	.linkonce discard
	.align 2
	.globl	_ZNK9__gnu_cxx17__normal_iteratorIPcNSt7__cxx1112basic_stringIcSt11char_traitsIcESaIcEEEEdeEv
	.def	_ZNK9__gnu_cxx17__normal_iteratorIPcNSt7__cxx1112basic_stringIcSt11char_traitsIcESaIcEEEEdeEv;	.scl	2;	.type	32;	.endef
	.seh_proc	_ZNK9__gnu_cxx17__normal_iteratorIPcNSt7__cxx1112basic_stringIcSt11char_traitsIcESaIcEEEEdeEv
_ZNK9__gnu_cxx17__normal_iteratorIPcNSt7__cxx1112basic_stringIcSt11char_traitsIcESaIcEEEEdeEv:
.LFB9315:
	pushq	%rbp	 #
	.seh_pushreg	%rbp
	movq	%rsp, %rbp	 #,
	.seh_setframe	%rbp, 0
	.seh_endprologue
	movq	%rcx, 16(%rbp)	 # this, this
 # C:/Program Files/CodeBlocks/MinGW/lib/gcc/x86_64-w64-mingw32/8.1.0/include/c++/bits/stl_iterator.h:794:       { return *_M_current; }
	movq	16(%rbp), %rax	 # this, tmp89
	movq	(%rax), %rax	 # this_2(D)->_M_current, _3
 # C:/Program Files/CodeBlocks/MinGW/lib/gcc/x86_64-w64-mingw32/8.1.0/include/c++/bits/stl_iterator.h:794:       { return *_M_current; }
	popq	%rbp	 #
	ret	
	.seh_endproc
	.section	.text$_ZSt19__iterator_categoryIN9__gnu_cxx17__normal_iteratorIPcNSt7__cxx1112basic_stringIcSt11char_traitsIcESaIcEEEEEENSt15iterator_traitsIT_E17iterator_categoryERKSB_,"x"
	.linkonce discard
	.globl	_ZSt19__iterator_categoryIN9__gnu_cxx17__normal_iteratorIPcNSt7__cxx1112basic_stringIcSt11char_traitsIcESaIcEEEEEENSt15iterator_traitsIT_E17iterator_categoryERKSB_
	.def	_ZSt19__iterator_categoryIN9__gnu_cxx17__normal_iteratorIPcNSt7__cxx1112basic_stringIcSt11char_traitsIcESaIcEEEEEENSt15iterator_traitsIT_E17iterator_categoryERKSB_;	.scl	2;	.type	32;	.endef
	.seh_proc	_ZSt19__iterator_categoryIN9__gnu_cxx17__normal_iteratorIPcNSt7__cxx1112basic_stringIcSt11char_traitsIcESaIcEEEEEENSt15iterator_traitsIT_E17iterator_categoryERKSB_
_ZSt19__iterator_categoryIN9__gnu_cxx17__normal_iteratorIPcNSt7__cxx1112basic_stringIcSt11char_traitsIcESaIcEEEEEENSt15iterator_traitsIT_E17iterator_categoryERKSB_:
.LFB9613:
	pushq	%rbp	 #
	.seh_pushreg	%rbp
	movq	%rsp, %rbp	 #,
	.seh_setframe	%rbp, 0
	.seh_endprologue
	movq	%rcx, 16(%rbp)	 # D.172617, D.172617
 # C:/Program Files/CodeBlocks/MinGW/lib/gcc/x86_64-w64-mingw32/8.1.0/include/c++/bits/stl_iterator_base_types.h:206:     { return typename iterator_traits<_Iter>::iterator_category(); }
	popq	%rbp	 #
	ret	
	.seh_endproc
	.section	.text$_ZSt9__reverseIN9__gnu_cxx17__normal_iteratorIPcNSt7__cxx1112basic_stringIcSt11char_traitsIcESaIcEEEEEEvT_SA_St26random_access_iterator_tag,"x"
	.linkonce discard
	.globl	_ZSt9__reverseIN9__gnu_cxx17__normal_iteratorIPcNSt7__cxx1112basic_stringIcSt11char_traitsIcESaIcEEEEEEvT_SA_St26random_access_iterator_tag
	.def	_ZSt9__reverseIN9__gnu_cxx17__normal_iteratorIPcNSt7__cxx1112basic_stringIcSt11char_traitsIcESaIcEEEEEEvT_SA_St26random_access_iterator_tag;	.scl	2;	.type	32;	.endef
	.seh_proc	_ZSt9__reverseIN9__gnu_cxx17__normal_iteratorIPcNSt7__cxx1112basic_stringIcSt11char_traitsIcESaIcEEEEEEvT_SA_St26random_access_iterator_tag
_ZSt9__reverseIN9__gnu_cxx17__normal_iteratorIPcNSt7__cxx1112basic_stringIcSt11char_traitsIcESaIcEEEEEEvT_SA_St26random_access_iterator_tag:
.LFB9614:
	pushq	%rbp	 #
	.seh_pushreg	%rbp
	movq	%rsp, %rbp	 #,
	.seh_setframe	%rbp, 0
	subq	$32, %rsp	 #,
	.seh_stackalloc	32
	.seh_endprologue
	movq	%rcx, 16(%rbp)	 # __first, __first
	movq	%rdx, 24(%rbp)	 # __last, __last
	movb	%r8b, 32(%rbp)	 # D.172649, D.172649
 # C:/Program Files/CodeBlocks/MinGW/lib/gcc/x86_64-w64-mingw32/8.1.0/include/c++/bits/stl_algo.h:1155:       if (__first == __last)
	leaq	24(%rbp), %rax	 #, tmp89
	movq	%rax, %rdx	 # tmp89,
	leaq	16(%rbp), %rcx	 #,
	call	_ZN9__gnu_cxxeqIPcNSt7__cxx1112basic_stringIcSt11char_traitsIcESaIcEEEEEbRKNS_17__normal_iteratorIT_T0_EESD_	 #
 # C:/Program Files/CodeBlocks/MinGW/lib/gcc/x86_64-w64-mingw32/8.1.0/include/c++/bits/stl_algo.h:1155:       if (__first == __last)
	testb	%al, %al	 # retval.1_5
	jne	.L24	 #,
 # C:/Program Files/CodeBlocks/MinGW/lib/gcc/x86_64-w64-mingw32/8.1.0/include/c++/bits/stl_algo.h:1157:       --__last;
	leaq	24(%rbp), %rax	 #, tmp90
	movq	%rax, %rcx	 # tmp90,
	call	_ZN9__gnu_cxx17__normal_iteratorIPcNSt7__cxx1112basic_stringIcSt11char_traitsIcESaIcEEEEmmEv	 #
.L23:
 # C:/Program Files/CodeBlocks/MinGW/lib/gcc/x86_64-w64-mingw32/8.1.0/include/c++/bits/stl_algo.h:1158:       while (__first < __last)
	leaq	24(%rbp), %rax	 #, tmp91
	movq	%rax, %rdx	 # tmp91,
	leaq	16(%rbp), %rcx	 #,
	call	_ZN9__gnu_cxxltIPcNSt7__cxx1112basic_stringIcSt11char_traitsIcESaIcEEEEEbRKNS_17__normal_iteratorIT_T0_EESD_	 #
	testb	%al, %al	 # retval.2_8
	je	.L20	 #,
 # C:/Program Files/CodeBlocks/MinGW/lib/gcc/x86_64-w64-mingw32/8.1.0/include/c++/bits/stl_algo.h:1160: 	  std::iter_swap(__first, __last);
	movq	24(%rbp), %rax	 # __last, tmp92
	movq	%rax, %rdx	 # tmp92,
	movq	16(%rbp), %rcx	 # __first,
	call	_ZSt9iter_swapIN9__gnu_cxx17__normal_iteratorIPcNSt7__cxx1112basic_stringIcSt11char_traitsIcESaIcEEEEES9_EvT_T0_	 #
 # C:/Program Files/CodeBlocks/MinGW/lib/gcc/x86_64-w64-mingw32/8.1.0/include/c++/bits/stl_algo.h:1161: 	  ++__first;
	leaq	16(%rbp), %rcx	 #,
	call	_ZN9__gnu_cxx17__normal_iteratorIPcNSt7__cxx1112basic_stringIcSt11char_traitsIcESaIcEEEEppEv	 #
 # C:/Program Files/CodeBlocks/MinGW/lib/gcc/x86_64-w64-mingw32/8.1.0/include/c++/bits/stl_algo.h:1162: 	  --__last;
	leaq	24(%rbp), %rax	 #, tmp93
	movq	%rax, %rcx	 # tmp93,
	call	_ZN9__gnu_cxx17__normal_iteratorIPcNSt7__cxx1112basic_stringIcSt11char_traitsIcESaIcEEEEmmEv	 #
 # C:/Program Files/CodeBlocks/MinGW/lib/gcc/x86_64-w64-mingw32/8.1.0/include/c++/bits/stl_algo.h:1158:       while (__first < __last)
	jmp	.L23	 #
.L24:
 # C:/Program Files/CodeBlocks/MinGW/lib/gcc/x86_64-w64-mingw32/8.1.0/include/c++/bits/stl_algo.h:1156: 	return;
	nop	
.L20:
 # C:/Program Files/CodeBlocks/MinGW/lib/gcc/x86_64-w64-mingw32/8.1.0/include/c++/bits/stl_algo.h:1164:     }
	addq	$32, %rsp	 #,
	popq	%rbp	 #
	ret	
	.seh_endproc
	.section	.text$_ZNK9__gnu_cxx5__ops15_Iter_less_iterclINS_17__normal_iteratorIPcNSt7__cxx1112basic_stringIcSt11char_traitsIcESaIcEEEEESB_EEbT_T0_,"x"
	.linkonce discard
	.align 2
	.globl	_ZNK9__gnu_cxx5__ops15_Iter_less_iterclINS_17__normal_iteratorIPcNSt7__cxx1112basic_stringIcSt11char_traitsIcESaIcEEEEESB_EEbT_T0_
	.def	_ZNK9__gnu_cxx5__ops15_Iter_less_iterclINS_17__normal_iteratorIPcNSt7__cxx1112basic_stringIcSt11char_traitsIcESaIcEEEEESB_EEbT_T0_;	.scl	2;	.type	32;	.endef
	.seh_proc	_ZNK9__gnu_cxx5__ops15_Iter_less_iterclINS_17__normal_iteratorIPcNSt7__cxx1112basic_stringIcSt11char_traitsIcESaIcEEEEESB_EEbT_T0_
_ZNK9__gnu_cxx5__ops15_Iter_less_iterclINS_17__normal_iteratorIPcNSt7__cxx1112basic_stringIcSt11char_traitsIcESaIcEEEEESB_EEbT_T0_:
.LFB9616:
	pushq	%rbp	 #
	.seh_pushreg	%rbp
	pushq	%rbx	 #
	.seh_pushreg	%rbx
	subq	$40, %rsp	 #,
	.seh_stackalloc	40
	leaq	128(%rsp), %rbp	 #,
	.seh_setframe	%rbp, 128
	.seh_endprologue
	movq	%rcx, -64(%rbp)	 # this, this
	movq	%rdx, -56(%rbp)	 # __it1, __it1
	movq	%r8, -48(%rbp)	 # __it2, __it2
 # C:/Program Files/CodeBlocks/MinGW/lib/gcc/x86_64-w64-mingw32/8.1.0/include/c++/bits/predefined_ops.h:43:       { return *__it1 < *__it2; }
	leaq	-56(%rbp), %rax	 #, tmp93
	movq	%rax, %rcx	 # tmp93,
	call	_ZNK9__gnu_cxx17__normal_iteratorIPcNSt7__cxx1112basic_stringIcSt11char_traitsIcESaIcEEEEdeEv	 #
 # C:/Program Files/CodeBlocks/MinGW/lib/gcc/x86_64-w64-mingw32/8.1.0/include/c++/bits/predefined_ops.h:43:       { return *__it1 < *__it2; }
	movzbl	(%rax), %ebx	 # *_1, _2
 # C:/Program Files/CodeBlocks/MinGW/lib/gcc/x86_64-w64-mingw32/8.1.0/include/c++/bits/predefined_ops.h:43:       { return *__it1 < *__it2; }
	leaq	-48(%rbp), %rax	 #, tmp94
	movq	%rax, %rcx	 # tmp94,
	call	_ZNK9__gnu_cxx17__normal_iteratorIPcNSt7__cxx1112basic_stringIcSt11char_traitsIcESaIcEEEEdeEv	 #
 # C:/Program Files/CodeBlocks/MinGW/lib/gcc/x86_64-w64-mingw32/8.1.0/include/c++/bits/predefined_ops.h:43:       { return *__it1 < *__it2; }
	movzbl	(%rax), %eax	 # *_3, _4
 # C:/Program Files/CodeBlocks/MinGW/lib/gcc/x86_64-w64-mingw32/8.1.0/include/c++/bits/predefined_ops.h:43:       { return *__it1 < *__it2; }
	cmpb	%al, %bl	 # _4, _2
	setl	%al	 #, _8
 # C:/Program Files/CodeBlocks/MinGW/lib/gcc/x86_64-w64-mingw32/8.1.0/include/c++/bits/predefined_ops.h:43:       { return *__it1 < *__it2; }
	addq	$40, %rsp	 #,
	popq	%rbx	 #
	popq	%rbp	 #
	ret	
	.seh_endproc
	.section	.text$_ZSt13__min_elementIN9__gnu_cxx17__normal_iteratorIPcNSt7__cxx1112basic_stringIcSt11char_traitsIcESaIcEEEEENS0_5__ops15_Iter_less_iterEET_SC_SC_T0_,"x"
	.linkonce discard
	.globl	_ZSt13__min_elementIN9__gnu_cxx17__normal_iteratorIPcNSt7__cxx1112basic_stringIcSt11char_traitsIcESaIcEEEEENS0_5__ops15_Iter_less_iterEET_SC_SC_T0_
	.def	_ZSt13__min_elementIN9__gnu_cxx17__normal_iteratorIPcNSt7__cxx1112basic_stringIcSt11char_traitsIcESaIcEEEEENS0_5__ops15_Iter_less_iterEET_SC_SC_T0_;	.scl	2;	.type	32;	.endef
	.seh_proc	_ZSt13__min_elementIN9__gnu_cxx17__normal_iteratorIPcNSt7__cxx1112basic_stringIcSt11char_traitsIcESaIcEEEEENS0_5__ops15_Iter_less_iterEET_SC_SC_T0_
_ZSt13__min_elementIN9__gnu_cxx17__normal_iteratorIPcNSt7__cxx1112basic_stringIcSt11char_traitsIcESaIcEEEEENS0_5__ops15_Iter_less_iterEET_SC_SC_T0_:
.LFB9615:
	pushq	%rbp	 #
	.seh_pushreg	%rbp
	movq	%rsp, %rbp	 #,
	.seh_setframe	%rbp, 0
	subq	$48, %rsp	 #,
	.seh_stackalloc	48
	.seh_endprologue
	movq	%rcx, 16(%rbp)	 # __first, __first
	movq	%rdx, 24(%rbp)	 # __last, __last
	movb	%r8b, 32(%rbp)	 # __comp, __comp
 # C:/Program Files/CodeBlocks/MinGW/lib/gcc/x86_64-w64-mingw32/8.1.0/include/c++/bits/stl_algo.h:5591:       if (__first == __last)
	leaq	24(%rbp), %rax	 #, tmp93
	movq	%rax, %rdx	 # tmp93,
	leaq	16(%rbp), %rcx	 #,
	call	_ZN9__gnu_cxxeqIPcNSt7__cxx1112basic_stringIcSt11char_traitsIcESaIcEEEEEbRKNS_17__normal_iteratorIT_T0_EESD_	 #
 # C:/Program Files/CodeBlocks/MinGW/lib/gcc/x86_64-w64-mingw32/8.1.0/include/c++/bits/stl_algo.h:5591:       if (__first == __last)
	testb	%al, %al	 # retval.3_7
	je	.L28	 #,
 # C:/Program Files/CodeBlocks/MinGW/lib/gcc/x86_64-w64-mingw32/8.1.0/include/c++/bits/stl_algo.h:5592: 	return __first;
	movq	16(%rbp), %rax	 # __first, D.178800
	jmp	.L33	 #
.L28:
 # C:/Program Files/CodeBlocks/MinGW/lib/gcc/x86_64-w64-mingw32/8.1.0/include/c++/bits/stl_algo.h:5593:       _ForwardIterator __result = __first;
	movq	16(%rbp), %rax	 # __first, tmp94
	movq	%rax, -8(%rbp)	 # tmp94, __result
.L32:
 # C:/Program Files/CodeBlocks/MinGW/lib/gcc/x86_64-w64-mingw32/8.1.0/include/c++/bits/stl_algo.h:5594:       while (++__first != __last)
	leaq	16(%rbp), %rcx	 #,
	call	_ZN9__gnu_cxx17__normal_iteratorIPcNSt7__cxx1112basic_stringIcSt11char_traitsIcESaIcEEEEppEv	 #
	movq	%rax, %rcx	 #, _1
 # C:/Program Files/CodeBlocks/MinGW/lib/gcc/x86_64-w64-mingw32/8.1.0/include/c++/bits/stl_algo.h:5594:       while (++__first != __last)
	leaq	24(%rbp), %rax	 #, tmp95
	movq	%rax, %rdx	 # tmp95,
	call	_ZN9__gnu_cxxneIPcNSt7__cxx1112basic_stringIcSt11char_traitsIcESaIcEEEEEbRKNS_17__normal_iteratorIT_T0_EESD_	 #
	testb	%al, %al	 # retval.4_12
	je	.L30	 #,
 # C:/Program Files/CodeBlocks/MinGW/lib/gcc/x86_64-w64-mingw32/8.1.0/include/c++/bits/stl_algo.h:5595: 	if (__comp(__first, __result))
	movq	-8(%rbp), %rdx	 # __result, tmp96
	leaq	32(%rbp), %rax	 #, tmp97
	movq	%rdx, %r8	 # tmp96,
	movq	16(%rbp), %rdx	 # __first,
	movq	%rax, %rcx	 # tmp97,
	call	_ZNK9__gnu_cxx5__ops15_Iter_less_iterclINS_17__normal_iteratorIPcNSt7__cxx1112basic_stringIcSt11char_traitsIcESaIcEEEEESB_EEbT_T0_	 #
 # C:/Program Files/CodeBlocks/MinGW/lib/gcc/x86_64-w64-mingw32/8.1.0/include/c++/bits/stl_algo.h:5595: 	if (__comp(__first, __result))
	testb	%al, %al	 # retval.5_14
	je	.L32	 #,
 # C:/Program Files/CodeBlocks/MinGW/lib/gcc/x86_64-w64-mingw32/8.1.0/include/c++/bits/stl_algo.h:5596: 	  __result = __first;
	movq	16(%rbp), %rax	 # __first, tmp98
	movq	%rax, -8(%rbp)	 # tmp98, __result
 # C:/Program Files/CodeBlocks/MinGW/lib/gcc/x86_64-w64-mingw32/8.1.0/include/c++/bits/stl_algo.h:5594:       while (++__first != __last)
	jmp	.L32	 #
.L30:
 # C:/Program Files/CodeBlocks/MinGW/lib/gcc/x86_64-w64-mingw32/8.1.0/include/c++/bits/stl_algo.h:5597:       return __result;
	movq	-8(%rbp), %rax	 # __result, D.178800
.L33:
 # C:/Program Files/CodeBlocks/MinGW/lib/gcc/x86_64-w64-mingw32/8.1.0/include/c++/bits/stl_algo.h:5598:     }
	addq	$48, %rsp	 #,
	popq	%rbp	 #
	ret	
	.seh_endproc
	.section	.text$_ZN9__gnu_cxxeqIPcNSt7__cxx1112basic_stringIcSt11char_traitsIcESaIcEEEEEbRKNS_17__normal_iteratorIT_T0_EESD_,"x"
	.linkonce discard
	.globl	_ZN9__gnu_cxxeqIPcNSt7__cxx1112basic_stringIcSt11char_traitsIcESaIcEEEEEbRKNS_17__normal_iteratorIT_T0_EESD_
	.def	_ZN9__gnu_cxxeqIPcNSt7__cxx1112basic_stringIcSt11char_traitsIcESaIcEEEEEbRKNS_17__normal_iteratorIT_T0_EESD_;	.scl	2;	.type	32;	.endef
	.seh_proc	_ZN9__gnu_cxxeqIPcNSt7__cxx1112basic_stringIcSt11char_traitsIcESaIcEEEEEbRKNS_17__normal_iteratorIT_T0_EESD_
_ZN9__gnu_cxxeqIPcNSt7__cxx1112basic_stringIcSt11char_traitsIcESaIcEEEEEbRKNS_17__normal_iteratorIT_T0_EESD_:
.LFB9764:
	pushq	%rbp	 #
	.seh_pushreg	%rbp
	pushq	%rbx	 #
	.seh_pushreg	%rbx
	subq	$40, %rsp	 #,
	.seh_stackalloc	40
	leaq	128(%rsp), %rbp	 #,
	.seh_setframe	%rbp, 128
	.seh_endprologue
	movq	%rcx, -64(%rbp)	 # __lhs, __lhs
	movq	%rdx, -56(%rbp)	 # __rhs, __rhs
 # C:/Program Files/CodeBlocks/MinGW/lib/gcc/x86_64-w64-mingw32/8.1.0/include/c++/bits/stl_iterator.h:870:     { return __lhs.base() == __rhs.base(); }
	movq	-64(%rbp), %rcx	 # __lhs,
	call	_ZNK9__gnu_cxx17__normal_iteratorIPcNSt7__cxx1112basic_stringIcSt11char_traitsIcESaIcEEEE4baseEv	 #
	movq	(%rax), %rbx	 # *_1, _2
	movq	-56(%rbp), %rax	 # __rhs, tmp93
	movq	%rax, %rcx	 # tmp93,
	call	_ZNK9__gnu_cxx17__normal_iteratorIPcNSt7__cxx1112basic_stringIcSt11char_traitsIcESaIcEEEE4baseEv	 #
	movq	(%rax), %rax	 # *_3, _4
 # C:/Program Files/CodeBlocks/MinGW/lib/gcc/x86_64-w64-mingw32/8.1.0/include/c++/bits/stl_iterator.h:870:     { return __lhs.base() == __rhs.base(); }
	cmpq	%rax, %rbx	 # _4, _2
	sete	%al	 #, _10
 # C:/Program Files/CodeBlocks/MinGW/lib/gcc/x86_64-w64-mingw32/8.1.0/include/c++/bits/stl_iterator.h:870:     { return __lhs.base() == __rhs.base(); }
	addq	$40, %rsp	 #,
	popq	%rbx	 #
	popq	%rbp	 #
	ret	
	.seh_endproc
	.section	.text$_ZN9__gnu_cxx17__normal_iteratorIPcNSt7__cxx1112basic_stringIcSt11char_traitsIcESaIcEEEEmmEv,"x"
	.linkonce discard
	.align 2
	.globl	_ZN9__gnu_cxx17__normal_iteratorIPcNSt7__cxx1112basic_stringIcSt11char_traitsIcESaIcEEEEmmEv
	.def	_ZN9__gnu_cxx17__normal_iteratorIPcNSt7__cxx1112basic_stringIcSt11char_traitsIcESaIcEEEEmmEv;	.scl	2;	.type	32;	.endef
	.seh_proc	_ZN9__gnu_cxx17__normal_iteratorIPcNSt7__cxx1112basic_stringIcSt11char_traitsIcESaIcEEEEmmEv
_ZN9__gnu_cxx17__normal_iteratorIPcNSt7__cxx1112basic_stringIcSt11char_traitsIcESaIcEEEEmmEv:
.LFB9765:
	pushq	%rbp	 #
	.seh_pushreg	%rbp
	movq	%rsp, %rbp	 #,
	.seh_setframe	%rbp, 0
	.seh_endprologue
	movq	%rcx, 16(%rbp)	 # this, this
 # C:/Program Files/CodeBlocks/MinGW/lib/gcc/x86_64-w64-mingw32/8.1.0/include/c++/bits/stl_iterator.h:815: 	--_M_current;
	movq	16(%rbp), %rax	 # this, tmp91
	movq	(%rax), %rax	 # this_4(D)->_M_current, _1
 # C:/Program Files/CodeBlocks/MinGW/lib/gcc/x86_64-w64-mingw32/8.1.0/include/c++/bits/stl_iterator.h:815: 	--_M_current;
	leaq	-1(%rax), %rdx	 #, _2
	movq	16(%rbp), %rax	 # this, tmp92
	movq	%rdx, (%rax)	 # _2, this_4(D)->_M_current
 # C:/Program Files/CodeBlocks/MinGW/lib/gcc/x86_64-w64-mingw32/8.1.0/include/c++/bits/stl_iterator.h:816: 	return *this;
	movq	16(%rbp), %rax	 # this, _6
 # C:/Program Files/CodeBlocks/MinGW/lib/gcc/x86_64-w64-mingw32/8.1.0/include/c++/bits/stl_iterator.h:817:       }
	popq	%rbp	 #
	ret	
	.seh_endproc
	.section	.text$_ZN9__gnu_cxxltIPcNSt7__cxx1112basic_stringIcSt11char_traitsIcESaIcEEEEEbRKNS_17__normal_iteratorIT_T0_EESD_,"x"
	.linkonce discard
	.globl	_ZN9__gnu_cxxltIPcNSt7__cxx1112basic_stringIcSt11char_traitsIcESaIcEEEEEbRKNS_17__normal_iteratorIT_T0_EESD_
	.def	_ZN9__gnu_cxxltIPcNSt7__cxx1112basic_stringIcSt11char_traitsIcESaIcEEEEEbRKNS_17__normal_iteratorIT_T0_EESD_;	.scl	2;	.type	32;	.endef
	.seh_proc	_ZN9__gnu_cxxltIPcNSt7__cxx1112basic_stringIcSt11char_traitsIcESaIcEEEEEbRKNS_17__normal_iteratorIT_T0_EESD_
_ZN9__gnu_cxxltIPcNSt7__cxx1112basic_stringIcSt11char_traitsIcESaIcEEEEEbRKNS_17__normal_iteratorIT_T0_EESD_:
.LFB9766:
	pushq	%rbp	 #
	.seh_pushreg	%rbp
	pushq	%rbx	 #
	.seh_pushreg	%rbx
	subq	$40, %rsp	 #,
	.seh_stackalloc	40
	leaq	128(%rsp), %rbp	 #,
	.seh_setframe	%rbp, 128
	.seh_endprologue
	movq	%rcx, -64(%rbp)	 # __lhs, __lhs
	movq	%rdx, -56(%rbp)	 # __rhs, __rhs
 # C:/Program Files/CodeBlocks/MinGW/lib/gcc/x86_64-w64-mingw32/8.1.0/include/c++/bits/stl_iterator.h:899:     { return __lhs.base() < __rhs.base(); }
	movq	-64(%rbp), %rcx	 # __lhs,
	call	_ZNK9__gnu_cxx17__normal_iteratorIPcNSt7__cxx1112basic_stringIcSt11char_traitsIcESaIcEEEE4baseEv	 #
	movq	(%rax), %rbx	 # *_1, _2
	movq	-56(%rbp), %rax	 # __rhs, tmp93
	movq	%rax, %rcx	 # tmp93,
	call	_ZNK9__gnu_cxx17__normal_iteratorIPcNSt7__cxx1112basic_stringIcSt11char_traitsIcESaIcEEEE4baseEv	 #
	movq	(%rax), %rax	 # *_3, _4
 # C:/Program Files/CodeBlocks/MinGW/lib/gcc/x86_64-w64-mingw32/8.1.0/include/c++/bits/stl_iterator.h:899:     { return __lhs.base() < __rhs.base(); }
	cmpq	%rax, %rbx	 # _4, _2
	setb	%al	 #, _10
 # C:/Program Files/CodeBlocks/MinGW/lib/gcc/x86_64-w64-mingw32/8.1.0/include/c++/bits/stl_iterator.h:899:     { return __lhs.base() < __rhs.base(); }
	addq	$40, %rsp	 #,
	popq	%rbx	 #
	popq	%rbp	 #
	ret	
	.seh_endproc
	.section	.text$_ZSt9iter_swapIN9__gnu_cxx17__normal_iteratorIPcNSt7__cxx1112basic_stringIcSt11char_traitsIcESaIcEEEEES9_EvT_T0_,"x"
	.linkonce discard
	.globl	_ZSt9iter_swapIN9__gnu_cxx17__normal_iteratorIPcNSt7__cxx1112basic_stringIcSt11char_traitsIcESaIcEEEEES9_EvT_T0_
	.def	_ZSt9iter_swapIN9__gnu_cxx17__normal_iteratorIPcNSt7__cxx1112basic_stringIcSt11char_traitsIcESaIcEEEEES9_EvT_T0_;	.scl	2;	.type	32;	.endef
	.seh_proc	_ZSt9iter_swapIN9__gnu_cxx17__normal_iteratorIPcNSt7__cxx1112basic_stringIcSt11char_traitsIcESaIcEEEEES9_EvT_T0_
_ZSt9iter_swapIN9__gnu_cxx17__normal_iteratorIPcNSt7__cxx1112basic_stringIcSt11char_traitsIcESaIcEEEEES9_EvT_T0_:
.LFB9767:
	pushq	%rbp	 #
	.seh_pushreg	%rbp
	pushq	%rbx	 #
	.seh_pushreg	%rbx
	subq	$40, %rsp	 #,
	.seh_stackalloc	40
	leaq	128(%rsp), %rbp	 #,
	.seh_setframe	%rbp, 128
	.seh_endprologue
	movq	%rcx, -64(%rbp)	 # __a, __a
	movq	%rdx, -56(%rbp)	 # __b, __b
 # C:/Program Files/CodeBlocks/MinGW/lib/gcc/x86_64-w64-mingw32/8.1.0/include/c++/bits/stl_algobase.h:148:       swap(*__a, *__b);
	leaq	-56(%rbp), %rax	 #, tmp89
	movq	%rax, %rcx	 # tmp89,
	call	_ZNK9__gnu_cxx17__normal_iteratorIPcNSt7__cxx1112basic_stringIcSt11char_traitsIcESaIcEEEEdeEv	 #
	movq	%rax, %rbx	 #, _1
 # C:/Program Files/CodeBlocks/MinGW/lib/gcc/x86_64-w64-mingw32/8.1.0/include/c++/bits/stl_algobase.h:148:       swap(*__a, *__b);
	leaq	-64(%rbp), %rcx	 #,
	call	_ZNK9__gnu_cxx17__normal_iteratorIPcNSt7__cxx1112basic_stringIcSt11char_traitsIcESaIcEEEEdeEv	 #
 # C:/Program Files/CodeBlocks/MinGW/lib/gcc/x86_64-w64-mingw32/8.1.0/include/c++/bits/stl_algobase.h:148:       swap(*__a, *__b);
	movq	%rbx, %rdx	 # _1,
	movq	%rax, %rcx	 # _2,
	call	_ZSt4swapIcENSt9enable_ifIXsrSt6__and_IJSt6__not_ISt15__is_tuple_likeIT_EESt21is_move_constructibleIS4_ESt18is_move_assignableIS4_EEE5valueEvE4typeERS4_SE_	 #
 # C:/Program Files/CodeBlocks/MinGW/lib/gcc/x86_64-w64-mingw32/8.1.0/include/c++/bits/stl_algobase.h:150:     }
	nop	
	addq	$40, %rsp	 #,
	popq	%rbx	 #
	popq	%rbp	 #
	ret	
	.seh_endproc
	.section	.text$_ZN9__gnu_cxx17__normal_iteratorIPcNSt7__cxx1112basic_stringIcSt11char_traitsIcESaIcEEEEppEv,"x"
	.linkonce discard
	.align 2
	.globl	_ZN9__gnu_cxx17__normal_iteratorIPcNSt7__cxx1112basic_stringIcSt11char_traitsIcESaIcEEEEppEv
	.def	_ZN9__gnu_cxx17__normal_iteratorIPcNSt7__cxx1112basic_stringIcSt11char_traitsIcESaIcEEEEppEv;	.scl	2;	.type	32;	.endef
	.seh_proc	_ZN9__gnu_cxx17__normal_iteratorIPcNSt7__cxx1112basic_stringIcSt11char_traitsIcESaIcEEEEppEv
_ZN9__gnu_cxx17__normal_iteratorIPcNSt7__cxx1112basic_stringIcSt11char_traitsIcESaIcEEEEppEv:
.LFB9768:
	pushq	%rbp	 #
	.seh_pushreg	%rbp
	movq	%rsp, %rbp	 #,
	.seh_setframe	%rbp, 0
	.seh_endprologue
	movq	%rcx, 16(%rbp)	 # this, this
 # C:/Program Files/CodeBlocks/MinGW/lib/gcc/x86_64-w64-mingw32/8.1.0/include/c++/bits/stl_iterator.h:803: 	++_M_current;
	movq	16(%rbp), %rax	 # this, tmp91
	movq	(%rax), %rax	 # this_4(D)->_M_current, _1
 # C:/Program Files/CodeBlocks/MinGW/lib/gcc/x86_64-w64-mingw32/8.1.0/include/c++/bits/stl_iterator.h:803: 	++_M_current;
	leaq	1(%rax), %rdx	 #, _2
	movq	16(%rbp), %rax	 # this, tmp92
	movq	%rdx, (%rax)	 # _2, this_4(D)->_M_current
 # C:/Program Files/CodeBlocks/MinGW/lib/gcc/x86_64-w64-mingw32/8.1.0/include/c++/bits/stl_iterator.h:804: 	return *this;
	movq	16(%rbp), %rax	 # this, _6
 # C:/Program Files/CodeBlocks/MinGW/lib/gcc/x86_64-w64-mingw32/8.1.0/include/c++/bits/stl_iterator.h:805:       }
	popq	%rbp	 #
	ret	
	.seh_endproc
	.section	.text$_ZN9__gnu_cxxneIPcNSt7__cxx1112basic_stringIcSt11char_traitsIcESaIcEEEEEbRKNS_17__normal_iteratorIT_T0_EESD_,"x"
	.linkonce discard
	.globl	_ZN9__gnu_cxxneIPcNSt7__cxx1112basic_stringIcSt11char_traitsIcESaIcEEEEEbRKNS_17__normal_iteratorIT_T0_EESD_
	.def	_ZN9__gnu_cxxneIPcNSt7__cxx1112basic_stringIcSt11char_traitsIcESaIcEEEEEbRKNS_17__normal_iteratorIT_T0_EESD_;	.scl	2;	.type	32;	.endef
	.seh_proc	_ZN9__gnu_cxxneIPcNSt7__cxx1112basic_stringIcSt11char_traitsIcESaIcEEEEEbRKNS_17__normal_iteratorIT_T0_EESD_
_ZN9__gnu_cxxneIPcNSt7__cxx1112basic_stringIcSt11char_traitsIcESaIcEEEEEbRKNS_17__normal_iteratorIT_T0_EESD_:
.LFB9769:
	pushq	%rbp	 #
	.seh_pushreg	%rbp
	pushq	%rbx	 #
	.seh_pushreg	%rbx
	subq	$40, %rsp	 #,
	.seh_stackalloc	40
	leaq	128(%rsp), %rbp	 #,
	.seh_setframe	%rbp, 128
	.seh_endprologue
	movq	%rcx, -64(%rbp)	 # __lhs, __lhs
	movq	%rdx, -56(%rbp)	 # __rhs, __rhs
 # C:/Program Files/CodeBlocks/MinGW/lib/gcc/x86_64-w64-mingw32/8.1.0/include/c++/bits/stl_iterator.h:884:     { return __lhs.base() != __rhs.base(); }
	movq	-64(%rbp), %rcx	 # __lhs,
	call	_ZNK9__gnu_cxx17__normal_iteratorIPcNSt7__cxx1112basic_stringIcSt11char_traitsIcESaIcEEEE4baseEv	 #
	movq	(%rax), %rbx	 # *_1, _2
	movq	-56(%rbp), %rax	 # __rhs, tmp93
	movq	%rax, %rcx	 # tmp93,
	call	_ZNK9__gnu_cxx17__normal_iteratorIPcNSt7__cxx1112basic_stringIcSt11char_traitsIcESaIcEEEE4baseEv	 #
	movq	(%rax), %rax	 # *_3, _4
 # C:/Program Files/CodeBlocks/MinGW/lib/gcc/x86_64-w64-mingw32/8.1.0/include/c++/bits/stl_iterator.h:884:     { return __lhs.base() != __rhs.base(); }
	cmpq	%rax, %rbx	 # _4, _2
	setne	%al	 #, _10
 # C:/Program Files/CodeBlocks/MinGW/lib/gcc/x86_64-w64-mingw32/8.1.0/include/c++/bits/stl_iterator.h:884:     { return __lhs.base() != __rhs.base(); }
	addq	$40, %rsp	 #,
	popq	%rbx	 #
	popq	%rbp	 #
	ret	
	.seh_endproc
	.section	.text$_ZNK9__gnu_cxx17__normal_iteratorIPcNSt7__cxx1112basic_stringIcSt11char_traitsIcESaIcEEEE4baseEv,"x"
	.linkonce discard
	.align 2
	.globl	_ZNK9__gnu_cxx17__normal_iteratorIPcNSt7__cxx1112basic_stringIcSt11char_traitsIcESaIcEEEE4baseEv
	.def	_ZNK9__gnu_cxx17__normal_iteratorIPcNSt7__cxx1112basic_stringIcSt11char_traitsIcESaIcEEEE4baseEv;	.scl	2;	.type	32;	.endef
	.seh_proc	_ZNK9__gnu_cxx17__normal_iteratorIPcNSt7__cxx1112basic_stringIcSt11char_traitsIcESaIcEEEE4baseEv
_ZNK9__gnu_cxx17__normal_iteratorIPcNSt7__cxx1112basic_stringIcSt11char_traitsIcESaIcEEEE4baseEv:
.LFB9872:
	pushq	%rbp	 #
	.seh_pushreg	%rbp
	movq	%rsp, %rbp	 #,
	.seh_setframe	%rbp, 0
	.seh_endprologue
	movq	%rcx, 16(%rbp)	 # this, this
 # C:/Program Files/CodeBlocks/MinGW/lib/gcc/x86_64-w64-mingw32/8.1.0/include/c++/bits/stl_iterator.h:846:       { return _M_current; }
	movq	16(%rbp), %rax	 # this, _2
 # C:/Program Files/CodeBlocks/MinGW/lib/gcc/x86_64-w64-mingw32/8.1.0/include/c++/bits/stl_iterator.h:846:       { return _M_current; }
	popq	%rbp	 #
	ret	
	.seh_endproc
	.section	.text$_ZSt4moveIRcEONSt16remove_referenceIT_E4typeEOS2_,"x"
	.linkonce discard
	.globl	_ZSt4moveIRcEONSt16remove_referenceIT_E4typeEOS2_
	.def	_ZSt4moveIRcEONSt16remove_referenceIT_E4typeEOS2_;	.scl	2;	.type	32;	.endef
	.seh_proc	_ZSt4moveIRcEONSt16remove_referenceIT_E4typeEOS2_
_ZSt4moveIRcEONSt16remove_referenceIT_E4typeEOS2_:
.LFB9874:
	pushq	%rbp	 #
	.seh_pushreg	%rbp
	movq	%rsp, %rbp	 #,
	.seh_setframe	%rbp, 0
	.seh_endprologue
	movq	%rcx, 16(%rbp)	 # __t, __t
 # C:/Program Files/CodeBlocks/MinGW/lib/gcc/x86_64-w64-mingw32/8.1.0/include/c++/bits/move.h:100:     { return static_cast<typename std::remove_reference<_Tp>::type&&>(__t); }
	movq	16(%rbp), %rax	 # __t, _2
 # C:/Program Files/CodeBlocks/MinGW/lib/gcc/x86_64-w64-mingw32/8.1.0/include/c++/bits/move.h:100:     { return static_cast<typename std::remove_reference<_Tp>::type&&>(__t); }
	popq	%rbp	 #
	ret	
	.seh_endproc
	.section	.text$_ZSt4swapIcENSt9enable_ifIXsrSt6__and_IJSt6__not_ISt15__is_tuple_likeIT_EESt21is_move_constructibleIS4_ESt18is_move_assignableIS4_EEE5valueEvE4typeERS4_SE_,"x"
	.linkonce discard
	.globl	_ZSt4swapIcENSt9enable_ifIXsrSt6__and_IJSt6__not_ISt15__is_tuple_likeIT_EESt21is_move_constructibleIS4_ESt18is_move_assignableIS4_EEE5valueEvE4typeERS4_SE_
	.def	_ZSt4swapIcENSt9enable_ifIXsrSt6__and_IJSt6__not_ISt15__is_tuple_likeIT_EESt21is_move_constructibleIS4_ESt18is_move_assignableIS4_EEE5valueEvE4typeERS4_SE_;	.scl	2;	.type	32;	.endef
	.seh_proc	_ZSt4swapIcENSt9enable_ifIXsrSt6__and_IJSt6__not_ISt15__is_tuple_likeIT_EESt21is_move_constructibleIS4_ESt18is_move_assignableIS4_EEE5valueEvE4typeERS4_SE_
_ZSt4swapIcENSt9enable_ifIXsrSt6__and_IJSt6__not_ISt15__is_tuple_likeIT_EESt21is_move_constructibleIS4_ESt18is_move_assignableIS4_EEE5valueEvE4typeERS4_SE_:
.LFB9873:
	pushq	%rbp	 #
	.seh_pushreg	%rbp
	movq	%rsp, %rbp	 #,
	.seh_setframe	%rbp, 0
	subq	$48, %rsp	 #,
	.seh_stackalloc	48
	.seh_endprologue
	movq	%rcx, 16(%rbp)	 # __a, __a
	movq	%rdx, 24(%rbp)	 # __b, __b
 # C:/Program Files/CodeBlocks/MinGW/lib/gcc/x86_64-w64-mingw32/8.1.0/include/c++/bits/move.h:193:       _Tp __tmp = _GLIBCXX_MOVE(__a);
	movq	16(%rbp), %rcx	 # __a,
	call	_ZSt4moveIRcEONSt16remove_referenceIT_E4typeEOS2_	 #
 # C:/Program Files/CodeBlocks/MinGW/lib/gcc/x86_64-w64-mingw32/8.1.0/include/c++/bits/move.h:193:       _Tp __tmp = _GLIBCXX_MOVE(__a);
	movzbl	(%rax), %eax	 # *_1, _2
	movb	%al, -1(%rbp)	 # _2, __tmp
 # C:/Program Files/CodeBlocks/MinGW/lib/gcc/x86_64-w64-mingw32/8.1.0/include/c++/bits/move.h:194:       __a = _GLIBCXX_MOVE(__b);
	movq	24(%rbp), %rax	 # __b, tmp93
	movq	%rax, %rcx	 # tmp93,
	call	_ZSt4moveIRcEONSt16remove_referenceIT_E4typeEOS2_	 #
 # C:/Program Files/CodeBlocks/MinGW/lib/gcc/x86_64-w64-mingw32/8.1.0/include/c++/bits/move.h:194:       __a = _GLIBCXX_MOVE(__b);
	movzbl	(%rax), %eax	 # *_3, _4
	movq	16(%rbp), %rdx	 # __a, tmp94
	movb	%al, (%rdx)	 # _4, *__a_8(D)
 # C:/Program Files/CodeBlocks/MinGW/lib/gcc/x86_64-w64-mingw32/8.1.0/include/c++/bits/move.h:195:       __b = _GLIBCXX_MOVE(__tmp);
	leaq	-1(%rbp), %rax	 #, tmp95
	movq	%rax, %rcx	 # tmp95,
	call	_ZSt4moveIRcEONSt16remove_referenceIT_E4typeEOS2_	 #
 # C:/Program Files/CodeBlocks/MinGW/lib/gcc/x86_64-w64-mingw32/8.1.0/include/c++/bits/move.h:195:       __b = _GLIBCXX_MOVE(__tmp);
	movzbl	(%rax), %eax	 # *_5, _6
	movq	24(%rbp), %rdx	 # __b, tmp96
	movb	%al, (%rdx)	 # _6, *__b_11(D)
 # C:/Program Files/CodeBlocks/MinGW/lib/gcc/x86_64-w64-mingw32/8.1.0/include/c++/bits/move.h:196:     }
	nop	
	addq	$48, %rsp	 #,
	popq	%rbp	 #
	ret	
	.seh_endproc
	.text
	.def	__tcf_0;	.scl	3;	.type	32;	.endef
	.seh_proc	__tcf_0
__tcf_0:
.LFB10142:
	pushq	%rbp	 #
	.seh_pushreg	%rbp
	movq	%rsp, %rbp	 #,
	.seh_setframe	%rbp, 0
	subq	$32, %rsp	 #,
	.seh_stackalloc	32
	.seh_endprologue
 # C:/Program Files/CodeBlocks/MinGW/lib/gcc/x86_64-w64-mingw32/8.1.0/include/c++/iostream:74:   static ios_base::Init __ioinit;
	leaq	_ZStL8__ioinit(%rip), %rcx	 #,
	call	_ZNSt8ios_base4InitD1Ev	 #
	nop	
	addq	$32, %rsp	 #,
	popq	%rbp	 #
	ret	
	.seh_endproc
	.def	_Z41__static_initialization_and_destruction_0ii;	.scl	3;	.type	32;	.endef
	.seh_proc	_Z41__static_initialization_and_destruction_0ii
_Z41__static_initialization_and_destruction_0ii:
.LFB10141:
	pushq	%rbp	 #
	.seh_pushreg	%rbp
	movq	%rsp, %rbp	 #,
	.seh_setframe	%rbp, 0
	subq	$32, %rsp	 #,
	.seh_stackalloc	32
	.seh_endprologue
	movl	%ecx, 16(%rbp)	 # __initialize_p, __initialize_p
	movl	%edx, 24(%rbp)	 # __priority, __priority
 # 1684a.cpp:45: }
	cmpl	$1, 16(%rbp)	 #, __initialize_p
	jne	.L53	 #,
 # 1684a.cpp:45: }
	cmpl	$65535, 24(%rbp)	 #, __priority
	jne	.L53	 #,
 # C:/Program Files/CodeBlocks/MinGW/lib/gcc/x86_64-w64-mingw32/8.1.0/include/c++/iostream:74:   static ios_base::Init __ioinit;
	leaq	_ZStL8__ioinit(%rip), %rcx	 #,
	call	_ZNSt8ios_base4InitC1Ev	 #
	leaq	__tcf_0(%rip), %rcx	 #,
	call	atexit	 #
.L53:
 # 1684a.cpp:45: }
	nop	
	addq	$32, %rsp	 #,
	popq	%rbp	 #
	ret	
	.seh_endproc
	.def	_GLOBAL__sub_I__Z5solvev;	.scl	3;	.type	32;	.endef
	.seh_proc	_GLOBAL__sub_I__Z5solvev
_GLOBAL__sub_I__Z5solvev:
.LFB10165:
	pushq	%rbp	 #
	.seh_pushreg	%rbp
	movq	%rsp, %rbp	 #,
	.seh_setframe	%rbp, 0
	subq	$32, %rsp	 #,
	.seh_stackalloc	32
	.seh_endprologue
 # 1684a.cpp:45: }
	movl	$65535, %edx	 #,
	movl	$1, %ecx	 #,
	call	_Z41__static_initialization_and_destruction_0ii	 #
	nop	
	addq	$32, %rsp	 #,
	popq	%rbp	 #
	ret	
	.seh_endproc
	.section	.ctors,"w"
	.align 8
	.quad	_GLOBAL__sub_I__Z5solvev
	.ident	"GCC: (x86_64-posix-seh-rev0, Built by MinGW-W64 project) 8.1.0"
	.def	_ZNSt7__cxx1112basic_stringIcSt11char_traitsIcESaIcEEC1Ev;	.scl	2;	.type	32;	.endef
	.def	_ZStrsIcSt11char_traitsIcESaIcEERSt13basic_istreamIT_T0_ES7_RNSt7__cxx1112basic_stringIS4_S5_T1_EE;	.scl	2;	.type	32;	.endef
	.def	_ZNKSt7__cxx1112basic_stringIcSt11char_traitsIcESaIcEE4sizeEv;	.scl	2;	.type	32;	.endef
	.def	_ZNSt7__cxx1112basic_stringIcSt11char_traitsIcESaIcEE3endEv;	.scl	2;	.type	32;	.endef
	.def	_ZNSt7__cxx1112basic_stringIcSt11char_traitsIcESaIcEE5beginEv;	.scl	2;	.type	32;	.endef
	.def	_ZNSt7__cxx1112basic_stringIcSt11char_traitsIcESaIcEEixEy;	.scl	2;	.type	32;	.endef
	.def	_ZStlsISt11char_traitsIcEERSt13basic_ostreamIcT_ES5_c;	.scl	2;	.type	32;	.endef
	.def	_ZNSt7__cxx1112basic_stringIcSt11char_traitsIcESaIcEED1Ev;	.scl	2;	.type	32;	.endef
	.def	_Unwind_Resume;	.scl	2;	.type	32;	.endef
	.def	_ZNSt8ios_base15sync_with_stdioEb;	.scl	2;	.type	32;	.endef
	.def	_ZNSt9basic_iosIcSt11char_traitsIcEE3tieEPSo;	.scl	2;	.type	32;	.endef
	.def	_ZNSirsERi;	.scl	2;	.type	32;	.endef
	.def	_ZNSt8ios_base4InitD1Ev;	.scl	2;	.type	32;	.endef
	.def	_ZNSt8ios_base4InitC1Ev;	.scl	2;	.type	32;	.endef
	.def	atexit;	.scl	2;	.type	32;	.endef
	.section	.rdata$.refptr._ZSt4cout, "dr"
	.globl	.refptr._ZSt4cout
	.linkonce	discard
.refptr._ZSt4cout:
	.quad	_ZSt4cout
	.section	.rdata$.refptr._ZSt3cin, "dr"
	.globl	.refptr._ZSt3cin
	.linkonce	discard
.refptr._ZSt3cin:
	.quad	_ZSt3cin
