	.file	"Subordinates.cpp"
 # GNU C++14 (x86_64-posix-seh-rev0, Built by MinGW-W64 project) version 8.1.0 (x86_64-w64-mingw32)
 #	compiled by GNU C version 8.1.0, GMP version 6.1.2, MPFR version 4.0.1, MPC version 1.1.0, isl version isl-0.18-GMP

 # GGC heuristics: --param ggc-min-expand=100 --param ggc-min-heapsize=131072
 # options passed:  -fpreprocessed Subordinates.ii -mtune=core2
 # -march=nocona -fverbose-asm
 # options enabled:  -faggressive-loop-optimizations
 # -fasynchronous-unwind-tables -fauto-inc-dec -fchkp-check-incomplete-type
 # -fchkp-check-read -fchkp-check-write -fchkp-instrument-calls
 # -fchkp-narrow-bounds -fchkp-optimize -fchkp-store-bounds
 # -fchkp-use-static-bounds -fchkp-use-static-const-bounds
 # -fchkp-use-wrappers -fcommon -fdelete-null-pointer-checks
 # -fdwarf2-cfi-asm -fearly-inlining -feliminate-unused-debug-types
 # -fexceptions -ffp-int-builtin-inexact -ffunction-cse -fgcse-lm
 # -fgnu-runtime -fgnu-unique -fident -finline-atomics -fira-hoist-pressure
 # -fira-share-save-slots -fira-share-spill-slots -fivopts
 # -fkeep-inline-dllexport -fkeep-static-consts -fleading-underscore
 # -flifetime-dse -flto-odr-type-merging -fmath-errno -fmerge-debug-strings
 # -fpeephole -fpic -fplt -fprefetch-loop-arrays -freg-struct-return
 # -fsched-critical-path-heuristic -fsched-dep-count-heuristic
 # -fsched-group-heuristic -fsched-interblock -fsched-last-insn-heuristic
 # -fsched-rank-heuristic -fsched-spec -fsched-spec-insn-heuristic
 # -fsched-stalled-insns-dep -fschedule-fusion -fsemantic-interposition
 # -fset-stack-executable -fshow-column -fshrink-wrap-separate
 # -fsigned-zeros -fsplit-ivs-in-unroller -fssa-backprop -fstdarg-opt
 # -fstrict-volatile-bitfields -fsync-libcalls -ftrapping-math
 # -ftree-cselim -ftree-forwprop -ftree-loop-if-convert -ftree-loop-im
 # -ftree-loop-ivcanon -ftree-loop-optimize -ftree-parallelize-loops=
 # -ftree-phiprop -ftree-reassoc -ftree-scev-cprop -funit-at-a-time
 # -funwind-tables -fverbose-asm -fzero-initialized-in-bss
 # -m128bit-long-double -m64 -m80387 -maccumulate-outgoing-args
 # -malign-double -malign-stringops -mcx16 -mfancy-math-387 -mfentry
 # -mfp-ret-in-387 -mfxsr -mieee-fp -mlong-double-80 -mmmx -mms-bitfields
 # -mno-sse4 -mpush-args -mred-zone -msse -msse2 -msse3 -mstack-arg-probe
 # -mstackrealign -mvzeroupper

	.text
	.section	.text$_ZnwyPv,"x"
	.linkonce discard
	.globl	_ZnwyPv
	.def	_ZnwyPv;	.scl	2;	.type	32;	.endef
	.seh_proc	_ZnwyPv
_ZnwyPv:
.LFB343:
	pushq	%rbp	 #
	.seh_pushreg	%rbp
	movq	%rsp, %rbp	 #,
	.seh_setframe	%rbp, 0
	.seh_endprologue
	movq	%rcx, 16(%rbp)	 # D.9440, D.9440
	movq	%rdx, 24(%rbp)	 # __p, __p
 # C:/Program Files/CodeBlocks/MinGW/lib/gcc/x86_64-w64-mingw32/8.1.0/include/c++/new:169: { return __p; }
	movq	24(%rbp), %rax	 # __p, _2
 # C:/Program Files/CodeBlocks/MinGW/lib/gcc/x86_64-w64-mingw32/8.1.0/include/c++/new:169: { return __p; }
	popq	%rbp	 #
	ret	
	.seh_endproc
	.section .rdata,"dr"
_ZStL19piecewise_construct:
	.space 1
_ZStL13allocator_arg:
	.space 1
_ZStL6ignore:
	.space 1
.lcomm _ZStL8__ioinit,1,1
	.align 4
_ZN9__gnu_cxxL21__default_lock_policyE:
	.long	2
_ZStL10defer_lock:
	.space 1
_ZStL11try_to_lock:
	.space 1
_ZStL10adopt_lock:
	.space 1
	.align 4
_ZNSt15regex_constantsL5icaseE:
	.long	1
	.align 4
_ZNSt15regex_constantsL6nosubsE:
	.long	2
	.align 4
_ZNSt15regex_constantsL8optimizeE:
	.long	4
	.align 4
_ZNSt15regex_constantsL7collateE:
	.long	8
	.align 4
_ZNSt15regex_constantsL10ECMAScriptE:
	.long	16
	.align 4
_ZNSt15regex_constantsL5basicE:
	.long	32
	.align 4
_ZNSt15regex_constantsL8extendedE:
	.long	64
	.align 4
_ZNSt15regex_constantsL3awkE:
	.long	128
	.align 4
_ZNSt15regex_constantsL4grepE:
	.long	256
	.align 4
_ZNSt15regex_constantsL5egrepE:
	.long	512
	.align 4
_ZNSt15regex_constantsL12__polynomialE:
	.long	1024
	.align 4
_ZNSt15regex_constantsL13match_defaultE:
	.space 4
	.align 4
_ZNSt15regex_constantsL13match_not_bolE:
	.long	1
	.align 4
_ZNSt15regex_constantsL13match_not_eolE:
	.long	2
	.align 4
_ZNSt15regex_constantsL13match_not_bowE:
	.long	4
	.align 4
_ZNSt15regex_constantsL13match_not_eowE:
	.long	8
	.align 4
_ZNSt15regex_constantsL9match_anyE:
	.long	16
	.align 4
_ZNSt15regex_constantsL14match_not_nullE:
	.long	32
	.align 4
_ZNSt15regex_constantsL16match_continuousE:
	.long	64
	.align 4
_ZNSt15regex_constantsL16match_prev_availE:
	.long	128
	.align 4
_ZNSt15regex_constantsL14format_defaultE:
	.space 4
	.align 4
_ZNSt15regex_constantsL10format_sedE:
	.long	256
	.align 4
_ZNSt15regex_constantsL14format_no_copyE:
	.long	512
	.align 4
_ZNSt15regex_constantsL17format_first_onlyE:
	.long	1024
	.align 4
_ZNSt15regex_constantsL13error_collateE:
	.space 4
	.align 4
_ZNSt15regex_constantsL11error_ctypeE:
	.long	1
	.align 4
_ZNSt15regex_constantsL12error_escapeE:
	.long	2
	.align 4
_ZNSt15regex_constantsL13error_backrefE:
	.long	3
	.align 4
_ZNSt15regex_constantsL11error_brackE:
	.long	4
	.align 4
_ZNSt15regex_constantsL11error_parenE:
	.long	5
	.align 4
_ZNSt15regex_constantsL11error_braceE:
	.long	6
	.align 4
_ZNSt15regex_constantsL14error_badbraceE:
	.long	7
	.align 4
_ZNSt15regex_constantsL11error_rangeE:
	.long	8
	.align 4
_ZNSt15regex_constantsL11error_spaceE:
	.long	9
	.align 4
_ZNSt15regex_constantsL15error_badrepeatE:
	.long	10
	.align 4
_ZNSt15regex_constantsL16error_complexityE:
	.long	11
	.align 4
_ZNSt15regex_constantsL11error_stackE:
	.long	12
	.align 4
_ZNSt8__detailL19_S_invalid_state_idE:
	.long	-1
	.align 4
_ZL3MAX:
	.long	200005
	.globl	p
	.bss
	.align 32
p:
	.space 800020
	.globl	sz
	.align 32
sz:
	.space 800020
	.globl	G
	.align 32
G:
	.space 4800120
	.text
	.globl	_Z3dfsi
	.def	_Z3dfsi;	.scl	2;	.type	32;	.endef
	.seh_proc	_Z3dfsi
_Z3dfsi:
.LFB8745:
	pushq	%rbp	 #
	.seh_pushreg	%rbp
	movq	%rsp, %rbp	 #,
	.seh_setframe	%rbp, 0
	subq	$64, %rsp	 #,
	.seh_stackalloc	64
	.seh_endprologue
	movl	%ecx, 16(%rbp)	 # u, u
 # Subordinates.cpp:33:     sz[u] = 1;
	movl	16(%rbp), %eax	 # u, tmp93
	cltq
	leaq	0(,%rax,4), %rdx	 #, tmp94
	leaq	sz(%rip), %rax	 #, tmp95
	movl	$1, (%rdx,%rax)	 #, sz
 # Subordinates.cpp:34:     for(int v : G[u]){
	movl	16(%rbp), %eax	 # u, tmp97
	movslq	%eax, %rdx	 # tmp97, tmp96
	movq	%rdx, %rax	 # tmp96, tmp98
	addq	%rax, %rax	 # tmp98
	addq	%rdx, %rax	 # tmp96, tmp98
	salq	$3, %rax	 #, tmp99
	leaq	G(%rip), %rdx	 #, tmp100
	addq	%rdx, %rax	 # tmp100, tmp101
	movq	%rax, -8(%rbp)	 # tmp101, __for_range
	movq	-8(%rbp), %rax	 # __for_range, tmp102
	movq	%rax, %rcx	 # tmp102,
	call	_ZNSt6vectorIiSaIiEE5beginEv	 #
	movq	%rax, -24(%rbp)	 # tmp104, __for_begin
	movq	-8(%rbp), %rax	 # __for_range, tmp105
	movq	%rax, %rcx	 # tmp105,
	call	_ZNSt6vectorIiSaIiEE3endEv	 #
	movq	%rax, -32(%rbp)	 # tmp107, __for_end
.L5:
 # Subordinates.cpp:34:     for(int v : G[u]){
	leaq	-32(%rbp), %rdx	 #, tmp108
	leaq	-24(%rbp), %rax	 #, tmp109
	movq	%rax, %rcx	 # tmp109,
	call	_ZN9__gnu_cxxneIPiSt6vectorIiSaIiEEEEbRKNS_17__normal_iteratorIT_T0_EESA_	 #
	testb	%al, %al	 # retval.0_13
	je	.L6	 #,
 # Subordinates.cpp:34:     for(int v : G[u]){
	leaq	-24(%rbp), %rax	 #, tmp110
	movq	%rax, %rcx	 # tmp110,
	call	_ZNK9__gnu_cxx17__normal_iteratorIPiSt6vectorIiSaIiEEEdeEv	 #
	movl	(%rax), %eax	 # *_1, tmp111
	movl	%eax, -12(%rbp)	 # tmp111, v
 # Subordinates.cpp:35:         dfs(v);
	movl	-12(%rbp), %eax	 # v, tmp112
	movl	%eax, %ecx	 # tmp112,
	call	_Z3dfsi	 #
 # Subordinates.cpp:36:         sz[u] += sz[v];
	movl	16(%rbp), %eax	 # u, tmp114
	cltq
	leaq	0(,%rax,4), %rdx	 #, tmp115
	leaq	sz(%rip), %rax	 #, tmp116
	movl	(%rdx,%rax), %ecx	 # sz, _2
 # Subordinates.cpp:36:         sz[u] += sz[v];
	movl	-12(%rbp), %eax	 # v, tmp118
	cltq
	leaq	0(,%rax,4), %rdx	 #, tmp119
	leaq	sz(%rip), %rax	 #, tmp120
	movl	(%rdx,%rax), %eax	 # sz, _3
 # Subordinates.cpp:36:         sz[u] += sz[v];
	addl	%eax, %ecx	 # _3, _4
	movl	16(%rbp), %eax	 # u, tmp122
	cltq
	leaq	0(,%rax,4), %rdx	 #, tmp123
	leaq	sz(%rip), %rax	 #, tmp124
	movl	%ecx, (%rdx,%rax)	 # _4, sz
 # Subordinates.cpp:34:     for(int v : G[u]){
	leaq	-24(%rbp), %rax	 #, tmp125
	movq	%rax, %rcx	 # tmp125,
	call	_ZN9__gnu_cxx17__normal_iteratorIPiSt6vectorIiSaIiEEEppEv	 #
 # Subordinates.cpp:34:     for(int v : G[u]){
	jmp	.L5	 #
.L6:
 # Subordinates.cpp:38: }
	nop	
	addq	$64, %rsp	 #,
	popq	%rbp	 #
	ret	
	.seh_endproc
	.def	__main;	.scl	2;	.type	32;	.endef
	.section .rdata,"dr"
.LC0:
	.ascii " \12\0"
	.text
	.globl	main
	.def	main;	.scl	2;	.type	32;	.endef
	.seh_proc	main
main:
.LFB8746:
	pushq	%rbp	 #
	.seh_pushreg	%rbp
	pushq	%r13	 #
	.seh_pushreg	%r13
	pushq	%r12	 #
	.seh_pushreg	%r12
	pushq	%rdi	 #
	.seh_pushreg	%rdi
	pushq	%rsi	 #
	.seh_pushreg	%rsi
	pushq	%rbx	 #
	.seh_pushreg	%rbx
	subq	$72, %rsp	 #,
	.seh_stackalloc	72
	leaq	128(%rsp), %rbp	 #,
	.seh_setframe	%rbp, 128
	.seh_endprologue
 # Subordinates.cpp:39: int main() {
	call	__main	 #
 # Subordinates.cpp:50:         cout<<sz[i]-1<<(" \n")[i==n];
	movq	%rsp, %rax	 #, tmp122
	movq	%rax, %rbx	 # tmp122, saved_stack.6_35
 # Subordinates.cpp:41:     cin>>n;
	leaq	-96(%rbp), %rax	 #, tmp123
	movq	%rax, %rdx	 # tmp123,
	movq	.refptr._ZSt3cin(%rip), %rcx	 #,
	call	_ZNSirsERi	 #
 # Subordinates.cpp:43:     ll a[n];
	movl	-96(%rbp), %eax	 # n, n.1_1
	cltq
	subq	$1, %rax	 #, _37
 # Subordinates.cpp:43:     ll a[n];
	movq	%rax, -80(%rbp)	 # _37, D.179241
	movq	%rax, %rdx	 # _37, _4
	addq	$1, %rdx	 #, _5
	movq	%rdx, %r12	 # _5, _6
	movl	$0, %r13d	 #, _6
	movq	%rax, %rdx	 # _37, _11
	addq	$1, %rdx	 #, _12
	movq	%rdx, %rsi	 # _12, _13
	movl	$0, %edi	 #, _13
	addq	$1, %rax	 #, _16
	salq	$3, %rax	 #, _42
	addq	$15, %rax	 #, tmp124
	shrq	$4, %rax	 #, tmp125
	salq	$4, %rax	 #, tmp126
	call	___chkstk_ms
	subq	%rax, %rsp	 # tmp128,
	leaq	32(%rsp), %rax	 #, tmp127
	addq	$7, %rax	 #, tmp129
	shrq	$3, %rax	 #, tmp130
	salq	$3, %rax	 #, tmp131
	movq	%rax, -88(%rbp)	 # tmp131, a.2
 # Subordinates.cpp:44:     f(i,n-1) {
	movl	$0, -72(%rbp)	 #, i
.L9:
 # Subordinates.cpp:44:     f(i,n-1) {
	movl	-96(%rbp), %eax	 # n, n.3_18
	subl	$1, %eax	 #, _19
 # Subordinates.cpp:44:     f(i,n-1) {
	cmpl	%eax, -72(%rbp)	 # _19, i
	jge	.L8	 #,
 # Subordinates.cpp:45:         cin>>a[i];
	movl	-72(%rbp), %eax	 # i, tmp133
	cltq
	leaq	0(,%rax,8), %rdx	 #, tmp134
	movq	-88(%rbp), %rax	 # a.2, tmp135
	addq	%rdx, %rax	 # tmp134, _20
	movq	%rax, %rdx	 # _20,
	movq	.refptr._ZSt3cin(%rip), %rcx	 #,
	call	_ZNSirsERx	 #
 # Subordinates.cpp:46:         G[a[i]].push_back(i+2);
	movq	-88(%rbp), %rdx	 # a.2, tmp136
	movl	-72(%rbp), %eax	 # i, tmp138
	cltq
	movq	(%rdx,%rax,8), %rdx	 # *a.2_44, _21
 # Subordinates.cpp:46:         G[a[i]].push_back(i+2);
	movq	%rdx, %rax	 # _21, tmp139
	addq	%rax, %rax	 # tmp139
	addq	%rdx, %rax	 # _21, tmp139
	salq	$3, %rax	 #, tmp140
	leaq	G(%rip), %rdx	 #, tmp141
	leaq	(%rax,%rdx), %rcx	 #, _22
 # Subordinates.cpp:46:         G[a[i]].push_back(i+2);
	movl	-72(%rbp), %eax	 # i, tmp142
	addl	$2, %eax	 #, _23
	movl	%eax, -92(%rbp)	 # _23, D.166576
 # Subordinates.cpp:46:         G[a[i]].push_back(i+2);
	leaq	-92(%rbp), %rax	 #, tmp143
	movq	%rax, %rdx	 # tmp143,
	call	_ZNSt6vectorIiSaIiEE9push_backEOi	 #
 # Subordinates.cpp:44:     f(i,n-1) {
	addl	$1, -72(%rbp)	 #, i
	jmp	.L9	 #
.L8:
 # Subordinates.cpp:48:     dfs(1);
	movl	$1, %ecx	 #,
	call	_Z3dfsi	 #
 # Subordinates.cpp:49:     for(int i = 1; i <= n; i++)
	movl	$1, -68(%rbp)	 #, i
.L11:
 # Subordinates.cpp:49:     for(int i = 1; i <= n; i++)
	movl	-96(%rbp), %eax	 # n, n.4_24
	cmpl	%eax, -68(%rbp)	 # n.4_24, i
	jg	.L10	 #,
 # Subordinates.cpp:50:         cout<<sz[i]-1<<(" \n")[i==n];
	movl	-68(%rbp), %eax	 # i, tmp145
	cltq
	leaq	0(,%rax,4), %rdx	 #, tmp146
	leaq	sz(%rip), %rax	 #, tmp147
	movl	(%rdx,%rax), %eax	 # sz, _25
 # Subordinates.cpp:50:         cout<<sz[i]-1<<(" \n")[i==n];
	subl	$1, %eax	 #, _26
	movl	%eax, %edx	 # _26,
	movq	.refptr._ZSt4cout(%rip), %rcx	 #,
	call	_ZNSolsEi	 #
	movq	%rax, %rcx	 #, _27
 # Subordinates.cpp:50:         cout<<sz[i]-1<<(" \n")[i==n];
	movl	-96(%rbp), %eax	 # n, n.5_28
	cmpl	%eax, -68(%rbp)	 # n.5_28, i
	sete	%al	 #, _29
	movzbl	%al, %eax	 # _29, _30
 # Subordinates.cpp:50:         cout<<sz[i]-1<<(" \n")[i==n];
	cltq
	leaq	.LC0(%rip), %rdx	 #, tmp149
	movzbl	(%rax,%rdx), %eax	 #, _31
	movsbl	%al, %eax	 # _31, _32
	movl	%eax, %edx	 # _32,
	call	_ZStlsISt11char_traitsIcEERSt13basic_ostreamIcT_ES5_c	 #
 # Subordinates.cpp:49:     for(int i = 1; i <= n; i++)
	addl	$1, -68(%rbp)	 #, i
	jmp	.L11	 #
.L10:
	movq	%rbx, %rsp	 # saved_stack.6_35,
 # Subordinates.cpp:52: }
	movl	$0, %eax	 #, _60
	leaq	-56(%rbp), %rsp	 #,
	popq	%rbx	 #
	popq	%rsi	 #
	popq	%rdi	 #
	popq	%r12	 #
	popq	%r13	 #
	popq	%rbp	 #
	ret	
	.seh_endproc
	.section	.text$_ZSt3maxIyERKT_S2_S2_,"x"
	.linkonce discard
	.globl	_ZSt3maxIyERKT_S2_S2_
	.def	_ZSt3maxIyERKT_S2_S2_;	.scl	2;	.type	32;	.endef
	.seh_proc	_ZSt3maxIyERKT_S2_S2_
_ZSt3maxIyERKT_S2_S2_:
.LFB9278:
	pushq	%rbp	 #
	.seh_pushreg	%rbp
	movq	%rsp, %rbp	 #,
	.seh_setframe	%rbp, 0
	.seh_endprologue
	movq	%rcx, 16(%rbp)	 # __a, __a
	movq	%rdx, 24(%rbp)	 # __b, __b
 # C:/Program Files/CodeBlocks/MinGW/lib/gcc/x86_64-w64-mingw32/8.1.0/include/c++/bits/stl_algobase.h:224:       if (__a < __b)
	movq	16(%rbp), %rax	 # __a, tmp91
	movq	(%rax), %rdx	 # *__a_5(D), _1
	movq	24(%rbp), %rax	 # __b, tmp92
	movq	(%rax), %rax	 # *__b_6(D), _2
 # C:/Program Files/CodeBlocks/MinGW/lib/gcc/x86_64-w64-mingw32/8.1.0/include/c++/bits/stl_algobase.h:224:       if (__a < __b)
	cmpq	%rax, %rdx	 # _2, _1
	jnb	.L14	 #,
 # C:/Program Files/CodeBlocks/MinGW/lib/gcc/x86_64-w64-mingw32/8.1.0/include/c++/bits/stl_algobase.h:225: 	return __b;
	movq	24(%rbp), %rax	 # __b, _3
	jmp	.L15	 #
.L14:
 # C:/Program Files/CodeBlocks/MinGW/lib/gcc/x86_64-w64-mingw32/8.1.0/include/c++/bits/stl_algobase.h:226:       return __a;
	movq	16(%rbp), %rax	 # __a, _3
.L15:
 # C:/Program Files/CodeBlocks/MinGW/lib/gcc/x86_64-w64-mingw32/8.1.0/include/c++/bits/stl_algobase.h:227:     }
	popq	%rbp	 #
	ret	
	.seh_endproc
	.section	.text$_ZSt7forwardIiEOT_RNSt16remove_referenceIS0_E4typeE,"x"
	.linkonce discard
	.globl	_ZSt7forwardIiEOT_RNSt16remove_referenceIS0_E4typeE
	.def	_ZSt7forwardIiEOT_RNSt16remove_referenceIS0_E4typeE;	.scl	2;	.type	32;	.endef
	.seh_proc	_ZSt7forwardIiEOT_RNSt16remove_referenceIS0_E4typeE
_ZSt7forwardIiEOT_RNSt16remove_referenceIS0_E4typeE:
.LFB9302:
	pushq	%rbp	 #
	.seh_pushreg	%rbp
	movq	%rsp, %rbp	 #,
	.seh_setframe	%rbp, 0
	.seh_endprologue
	movq	%rcx, 16(%rbp)	 # __t, __t
 # C:/Program Files/CodeBlocks/MinGW/lib/gcc/x86_64-w64-mingw32/8.1.0/include/c++/bits/move.h:75:     { return static_cast<_Tp&&>(__t); }
	movq	16(%rbp), %rax	 # __t, _2
 # C:/Program Files/CodeBlocks/MinGW/lib/gcc/x86_64-w64-mingw32/8.1.0/include/c++/bits/move.h:75:     { return static_cast<_Tp&&>(__t); }
	popq	%rbp	 #
	ret	
	.seh_endproc
	.section	.text$_ZNSt6vectorIiSaIiEEC1Ev,"x"
	.linkonce discard
	.align 2
	.globl	_ZNSt6vectorIiSaIiEEC1Ev
	.def	_ZNSt6vectorIiSaIiEEC1Ev;	.scl	2;	.type	32;	.endef
	.seh_proc	_ZNSt6vectorIiSaIiEEC1Ev
_ZNSt6vectorIiSaIiEEC1Ev:
.LFB9307:
	pushq	%rbp	 #
	.seh_pushreg	%rbp
	movq	%rsp, %rbp	 #,
	.seh_setframe	%rbp, 0
	subq	$32, %rsp	 #,
	.seh_stackalloc	32
	.seh_endprologue
	movq	%rcx, 16(%rbp)	 # this, this
 # C:/Program Files/CodeBlocks/MinGW/lib/gcc/x86_64-w64-mingw32/8.1.0/include/c++/bits/stl_vector.h:395:       : _Base() { }
	movq	16(%rbp), %rax	 # this, _1
	movq	%rax, %rcx	 # _1,
	call	_ZNSt12_Vector_baseIiSaIiEEC2Ev	 #
 # C:/Program Files/CodeBlocks/MinGW/lib/gcc/x86_64-w64-mingw32/8.1.0/include/c++/bits/stl_vector.h:395:       : _Base() { }
	nop	
	addq	$32, %rsp	 #,
	popq	%rbp	 #
	ret	
	.def	__gxx_personality_seh0;	.scl	2;	.type	32;	.endef
	.seh_handler	__gxx_personality_seh0, @unwind, @except
	.seh_handlerdata
.LLSDA9307:
	.byte	0xff
	.byte	0xff
	.byte	0x1
	.uleb128 .LLSDACSE9307-.LLSDACSB9307
.LLSDACSB9307:
.LLSDACSE9307:
	.section	.text$_ZNSt6vectorIiSaIiEEC1Ev,"x"
	.linkonce discard
	.seh_endproc
	.section	.text$_ZNSt6vectorIiSaIiEED1Ev,"x"
	.linkonce discard
	.align 2
	.globl	_ZNSt6vectorIiSaIiEED1Ev
	.def	_ZNSt6vectorIiSaIiEED1Ev;	.scl	2;	.type	32;	.endef
	.seh_proc	_ZNSt6vectorIiSaIiEED1Ev
_ZNSt6vectorIiSaIiEED1Ev:
.LFB9310:
	pushq	%rbp	 #
	.seh_pushreg	%rbp
	movq	%rsp, %rbp	 #,
	.seh_setframe	%rbp, 0
	subq	$32, %rsp	 #,
	.seh_stackalloc	32
	.seh_endprologue
	movq	%rcx, 16(%rbp)	 # this, this
 # C:/Program Files/CodeBlocks/MinGW/lib/gcc/x86_64-w64-mingw32/8.1.0/include/c++/bits/stl_vector.h:568: 		      _M_get_Tp_allocator());
	movq	16(%rbp), %rax	 # this, _1
	movq	%rax, %rcx	 # _1,
	call	_ZNSt12_Vector_baseIiSaIiEE19_M_get_Tp_allocatorEv	 #
	movq	%rax, %rcx	 #, _2
 # C:/Program Files/CodeBlocks/MinGW/lib/gcc/x86_64-w64-mingw32/8.1.0/include/c++/bits/stl_vector.h:567: 	std::_Destroy(this->_M_impl._M_start, this->_M_impl._M_finish,
	movq	16(%rbp), %rax	 # this, tmp92
	movq	8(%rax), %rdx	 # this_6(D)->D.152462._M_impl._M_finish, _3
	movq	16(%rbp), %rax	 # this, tmp93
	movq	(%rax), %rax	 # this_6(D)->D.152462._M_impl._M_start, _4
	movq	%rcx, %r8	 # _2,
	movq	%rax, %rcx	 # _4,
	call	_ZSt8_DestroyIPiiEvT_S1_RSaIT0_E	 #
 # C:/Program Files/CodeBlocks/MinGW/lib/gcc/x86_64-w64-mingw32/8.1.0/include/c++/bits/stl_vector.h:570:       }
	movq	16(%rbp), %rax	 # this, _5
	movq	%rax, %rcx	 # _5,
	call	_ZNSt12_Vector_baseIiSaIiEED2Ev	 #
	nop	
	addq	$32, %rsp	 #,
	popq	%rbp	 #
	ret	
	.seh_handler	__gxx_personality_seh0, @unwind, @except
	.seh_handlerdata
.LLSDA9310:
	.byte	0xff
	.byte	0xff
	.byte	0x1
	.uleb128 .LLSDACSE9310-.LLSDACSB9310
.LLSDACSB9310:
.LLSDACSE9310:
	.section	.text$_ZNSt6vectorIiSaIiEED1Ev,"x"
	.linkonce discard
	.seh_endproc
	.section	.text$_ZNSt6vectorIiSaIiEE5beginEv,"x"
	.linkonce discard
	.align 2
	.globl	_ZNSt6vectorIiSaIiEE5beginEv
	.def	_ZNSt6vectorIiSaIiEE5beginEv;	.scl	2;	.type	32;	.endef
	.seh_proc	_ZNSt6vectorIiSaIiEE5beginEv
_ZNSt6vectorIiSaIiEE5beginEv:
.LFB9311:
	pushq	%rbp	 #
	.seh_pushreg	%rbp
	movq	%rsp, %rbp	 #,
	.seh_setframe	%rbp, 0
	subq	$48, %rsp	 #,
	.seh_stackalloc	48
	.seh_endprologue
	movq	%rcx, 16(%rbp)	 # this, this
 # C:/Program Files/CodeBlocks/MinGW/lib/gcc/x86_64-w64-mingw32/8.1.0/include/c++/bits/stl_vector.h:699:       { return iterator(this->_M_impl._M_start); }
	movq	16(%rbp), %rdx	 # this, _1
 # C:/Program Files/CodeBlocks/MinGW/lib/gcc/x86_64-w64-mingw32/8.1.0/include/c++/bits/stl_vector.h:699:       { return iterator(this->_M_impl._M_start); }
	leaq	-8(%rbp), %rax	 #, tmp90
	movq	%rax, %rcx	 # tmp90,
	call	_ZN9__gnu_cxx17__normal_iteratorIPiSt6vectorIiSaIiEEEC1ERKS1_	 #
	movq	-8(%rbp), %rax	 # D.172713, D.179226
 # C:/Program Files/CodeBlocks/MinGW/lib/gcc/x86_64-w64-mingw32/8.1.0/include/c++/bits/stl_vector.h:699:       { return iterator(this->_M_impl._M_start); }
	addq	$48, %rsp	 #,
	popq	%rbp	 #
	ret	
	.seh_endproc
	.section	.text$_ZNSt6vectorIiSaIiEE3endEv,"x"
	.linkonce discard
	.align 2
	.globl	_ZNSt6vectorIiSaIiEE3endEv
	.def	_ZNSt6vectorIiSaIiEE3endEv;	.scl	2;	.type	32;	.endef
	.seh_proc	_ZNSt6vectorIiSaIiEE3endEv
_ZNSt6vectorIiSaIiEE3endEv:
.LFB9312:
	pushq	%rbp	 #
	.seh_pushreg	%rbp
	movq	%rsp, %rbp	 #,
	.seh_setframe	%rbp, 0
	subq	$48, %rsp	 #,
	.seh_stackalloc	48
	.seh_endprologue
	movq	%rcx, 16(%rbp)	 # this, this
 # C:/Program Files/CodeBlocks/MinGW/lib/gcc/x86_64-w64-mingw32/8.1.0/include/c++/bits/stl_vector.h:717:       { return iterator(this->_M_impl._M_finish); }
	movq	16(%rbp), %rax	 # this, tmp90
	leaq	8(%rax), %rdx	 #, _1
 # C:/Program Files/CodeBlocks/MinGW/lib/gcc/x86_64-w64-mingw32/8.1.0/include/c++/bits/stl_vector.h:717:       { return iterator(this->_M_impl._M_finish); }
	leaq	-8(%rbp), %rax	 #, tmp91
	movq	%rax, %rcx	 # tmp91,
	call	_ZN9__gnu_cxx17__normal_iteratorIPiSt6vectorIiSaIiEEEC1ERKS1_	 #
	movq	-8(%rbp), %rax	 # D.172715, D.179229
 # C:/Program Files/CodeBlocks/MinGW/lib/gcc/x86_64-w64-mingw32/8.1.0/include/c++/bits/stl_vector.h:717:       { return iterator(this->_M_impl._M_finish); }
	addq	$48, %rsp	 #,
	popq	%rbp	 #
	ret	
	.seh_endproc
	.section	.text$_ZN9__gnu_cxxneIPiSt6vectorIiSaIiEEEEbRKNS_17__normal_iteratorIT_T0_EESA_,"x"
	.linkonce discard
	.globl	_ZN9__gnu_cxxneIPiSt6vectorIiSaIiEEEEbRKNS_17__normal_iteratorIT_T0_EESA_
	.def	_ZN9__gnu_cxxneIPiSt6vectorIiSaIiEEEEbRKNS_17__normal_iteratorIT_T0_EESA_;	.scl	2;	.type	32;	.endef
	.seh_proc	_ZN9__gnu_cxxneIPiSt6vectorIiSaIiEEEEbRKNS_17__normal_iteratorIT_T0_EESA_
_ZN9__gnu_cxxneIPiSt6vectorIiSaIiEEEEbRKNS_17__normal_iteratorIT_T0_EESA_:
.LFB9313:
	pushq	%rbp	 #
	.seh_pushreg	%rbp
	pushq	%rbx	 #
	.seh_pushreg	%rbx
	subq	$40, %rsp	 #,
	.seh_stackalloc	40
	leaq	128(%rsp), %rbp	 #,
	.seh_setframe	%rbp, 128
	.seh_endprologue
	movq	%rcx, -64(%rbp)	 # __lhs, __lhs
	movq	%rdx, -56(%rbp)	 # __rhs, __rhs
 # C:/Program Files/CodeBlocks/MinGW/lib/gcc/x86_64-w64-mingw32/8.1.0/include/c++/bits/stl_iterator.h:884:     { return __lhs.base() != __rhs.base(); }
	movq	-64(%rbp), %rcx	 # __lhs,
	call	_ZNK9__gnu_cxx17__normal_iteratorIPiSt6vectorIiSaIiEEE4baseEv	 #
	movq	(%rax), %rbx	 # *_1, _2
	movq	-56(%rbp), %rax	 # __rhs, tmp93
	movq	%rax, %rcx	 # tmp93,
	call	_ZNK9__gnu_cxx17__normal_iteratorIPiSt6vectorIiSaIiEEE4baseEv	 #
	movq	(%rax), %rax	 # *_3, _4
 # C:/Program Files/CodeBlocks/MinGW/lib/gcc/x86_64-w64-mingw32/8.1.0/include/c++/bits/stl_iterator.h:884:     { return __lhs.base() != __rhs.base(); }
	cmpq	%rax, %rbx	 # _4, _2
	setne	%al	 #, _10
 # C:/Program Files/CodeBlocks/MinGW/lib/gcc/x86_64-w64-mingw32/8.1.0/include/c++/bits/stl_iterator.h:884:     { return __lhs.base() != __rhs.base(); }
	addq	$40, %rsp	 #,
	popq	%rbx	 #
	popq	%rbp	 #
	ret	
	.seh_endproc
	.section	.text$_ZN9__gnu_cxx17__normal_iteratorIPiSt6vectorIiSaIiEEEppEv,"x"
	.linkonce discard
	.align 2
	.globl	_ZN9__gnu_cxx17__normal_iteratorIPiSt6vectorIiSaIiEEEppEv
	.def	_ZN9__gnu_cxx17__normal_iteratorIPiSt6vectorIiSaIiEEEppEv;	.scl	2;	.type	32;	.endef
	.seh_proc	_ZN9__gnu_cxx17__normal_iteratorIPiSt6vectorIiSaIiEEEppEv
_ZN9__gnu_cxx17__normal_iteratorIPiSt6vectorIiSaIiEEEppEv:
.LFB9314:
	pushq	%rbp	 #
	.seh_pushreg	%rbp
	movq	%rsp, %rbp	 #,
	.seh_setframe	%rbp, 0
	.seh_endprologue
	movq	%rcx, 16(%rbp)	 # this, this
 # C:/Program Files/CodeBlocks/MinGW/lib/gcc/x86_64-w64-mingw32/8.1.0/include/c++/bits/stl_iterator.h:803: 	++_M_current;
	movq	16(%rbp), %rax	 # this, tmp91
	movq	(%rax), %rax	 # this_4(D)->_M_current, _1
 # C:/Program Files/CodeBlocks/MinGW/lib/gcc/x86_64-w64-mingw32/8.1.0/include/c++/bits/stl_iterator.h:803: 	++_M_current;
	leaq	4(%rax), %rdx	 #, _2
	movq	16(%rbp), %rax	 # this, tmp92
	movq	%rdx, (%rax)	 # _2, this_4(D)->_M_current
 # C:/Program Files/CodeBlocks/MinGW/lib/gcc/x86_64-w64-mingw32/8.1.0/include/c++/bits/stl_iterator.h:804: 	return *this;
	movq	16(%rbp), %rax	 # this, _6
 # C:/Program Files/CodeBlocks/MinGW/lib/gcc/x86_64-w64-mingw32/8.1.0/include/c++/bits/stl_iterator.h:805:       }
	popq	%rbp	 #
	ret	
	.seh_endproc
	.section	.text$_ZNK9__gnu_cxx17__normal_iteratorIPiSt6vectorIiSaIiEEEdeEv,"x"
	.linkonce discard
	.align 2
	.globl	_ZNK9__gnu_cxx17__normal_iteratorIPiSt6vectorIiSaIiEEEdeEv
	.def	_ZNK9__gnu_cxx17__normal_iteratorIPiSt6vectorIiSaIiEEEdeEv;	.scl	2;	.type	32;	.endef
	.seh_proc	_ZNK9__gnu_cxx17__normal_iteratorIPiSt6vectorIiSaIiEEEdeEv
_ZNK9__gnu_cxx17__normal_iteratorIPiSt6vectorIiSaIiEEEdeEv:
.LFB9315:
	pushq	%rbp	 #
	.seh_pushreg	%rbp
	movq	%rsp, %rbp	 #,
	.seh_setframe	%rbp, 0
	.seh_endprologue
	movq	%rcx, 16(%rbp)	 # this, this
 # C:/Program Files/CodeBlocks/MinGW/lib/gcc/x86_64-w64-mingw32/8.1.0/include/c++/bits/stl_iterator.h:794:       { return *_M_current; }
	movq	16(%rbp), %rax	 # this, tmp89
	movq	(%rax), %rax	 # this_2(D)->_M_current, _3
 # C:/Program Files/CodeBlocks/MinGW/lib/gcc/x86_64-w64-mingw32/8.1.0/include/c++/bits/stl_iterator.h:794:       { return *_M_current; }
	popq	%rbp	 #
	ret	
	.seh_endproc
	.section	.text$_ZNSt6vectorIiSaIiEE9push_backEOi,"x"
	.linkonce discard
	.align 2
	.globl	_ZNSt6vectorIiSaIiEE9push_backEOi
	.def	_ZNSt6vectorIiSaIiEE9push_backEOi;	.scl	2;	.type	32;	.endef
	.seh_proc	_ZNSt6vectorIiSaIiEE9push_backEOi
_ZNSt6vectorIiSaIiEE9push_backEOi:
.LFB9317:
	pushq	%rbp	 #
	.seh_pushreg	%rbp
	movq	%rsp, %rbp	 #,
	.seh_setframe	%rbp, 0
	subq	$32, %rsp	 #,
	.seh_stackalloc	32
	.seh_endprologue
	movq	%rcx, 16(%rbp)	 # this, this
	movq	%rdx, 24(%rbp)	 # __x, __x
 # C:/Program Files/CodeBlocks/MinGW/lib/gcc/x86_64-w64-mingw32/8.1.0/include/c++/bits/stl_vector.h:1091:       { emplace_back(std::move(__x)); }
	movq	24(%rbp), %rax	 # __x, tmp88
	movq	%rax, %rcx	 # tmp88,
	call	_ZSt4moveIRiEONSt16remove_referenceIT_E4typeEOS2_	 #
 # C:/Program Files/CodeBlocks/MinGW/lib/gcc/x86_64-w64-mingw32/8.1.0/include/c++/bits/stl_vector.h:1091:       { emplace_back(std::move(__x)); }
	movq	%rax, %rdx	 # _1,
	movq	16(%rbp), %rcx	 # this,
	call	_ZNSt6vectorIiSaIiEE12emplace_backIJiEEEvDpOT_	 #
 # C:/Program Files/CodeBlocks/MinGW/lib/gcc/x86_64-w64-mingw32/8.1.0/include/c++/bits/stl_vector.h:1091:       { emplace_back(std::move(__x)); }
	nop	
	addq	$32, %rsp	 #,
	popq	%rbp	 #
	ret	
	.seh_endproc
	.section	.text$_ZNSt12_Vector_baseIiSaIiEE12_Vector_implD1Ev,"x"
	.linkonce discard
	.align 2
	.globl	_ZNSt12_Vector_baseIiSaIiEE12_Vector_implD1Ev
	.def	_ZNSt12_Vector_baseIiSaIiEE12_Vector_implD1Ev;	.scl	2;	.type	32;	.endef
	.seh_proc	_ZNSt12_Vector_baseIiSaIiEE12_Vector_implD1Ev
_ZNSt12_Vector_baseIiSaIiEE12_Vector_implD1Ev:
.LFB9616:
	pushq	%rbp	 #
	.seh_pushreg	%rbp
	movq	%rsp, %rbp	 #,
	.seh_setframe	%rbp, 0
	subq	$32, %rsp	 #,
	.seh_stackalloc	32
	.seh_endprologue
	movq	%rcx, 16(%rbp)	 # this, this
 # C:/Program Files/CodeBlocks/MinGW/lib/gcc/x86_64-w64-mingw32/8.1.0/include/c++/bits/stl_vector.h:88:       struct _Vector_impl
	movq	16(%rbp), %rcx	 # this,
	call	_ZNSaIiED2Ev	 #
	nop	
	addq	$32, %rsp	 #,
	popq	%rbp	 #
	ret	
	.seh_endproc
	.section	.text$_ZNSt12_Vector_baseIiSaIiEEC2Ev,"x"
	.linkonce discard
	.align 2
	.globl	_ZNSt12_Vector_baseIiSaIiEEC2Ev
	.def	_ZNSt12_Vector_baseIiSaIiEEC2Ev;	.scl	2;	.type	32;	.endef
	.seh_proc	_ZNSt12_Vector_baseIiSaIiEEC2Ev
_ZNSt12_Vector_baseIiSaIiEEC2Ev:
.LFB9617:
	pushq	%rbp	 #
	.seh_pushreg	%rbp
	movq	%rsp, %rbp	 #,
	.seh_setframe	%rbp, 0
	subq	$32, %rsp	 #,
	.seh_stackalloc	32
	.seh_endprologue
	movq	%rcx, 16(%rbp)	 # this, this
 # C:/Program Files/CodeBlocks/MinGW/lib/gcc/x86_64-w64-mingw32/8.1.0/include/c++/bits/stl_vector.h:249:       : _M_impl() { }
	movq	16(%rbp), %rax	 # this, _1
	movq	%rax, %rcx	 # _1,
	call	_ZNSt12_Vector_baseIiSaIiEE12_Vector_implC1Ev	 #
 # C:/Program Files/CodeBlocks/MinGW/lib/gcc/x86_64-w64-mingw32/8.1.0/include/c++/bits/stl_vector.h:249:       : _M_impl() { }
	nop	
	addq	$32, %rsp	 #,
	popq	%rbp	 #
	ret	
	.seh_endproc
	.section	.text$_ZNSt12_Vector_baseIiSaIiEED2Ev,"x"
	.linkonce discard
	.align 2
	.globl	_ZNSt12_Vector_baseIiSaIiEED2Ev
	.def	_ZNSt12_Vector_baseIiSaIiEED2Ev;	.scl	2;	.type	32;	.endef
	.seh_proc	_ZNSt12_Vector_baseIiSaIiEED2Ev
_ZNSt12_Vector_baseIiSaIiEED2Ev:
.LFB9620:
	pushq	%rbp	 #
	.seh_pushreg	%rbp
	movq	%rsp, %rbp	 #,
	.seh_setframe	%rbp, 0
	subq	$32, %rsp	 #,
	.seh_stackalloc	32
	.seh_endprologue
	movq	%rcx, 16(%rbp)	 # this, this
 # C:/Program Files/CodeBlocks/MinGW/lib/gcc/x86_64-w64-mingw32/8.1.0/include/c++/bits/stl_vector.h:286: 		      _M_impl._M_end_of_storage - _M_impl._M_start);
	movq	16(%rbp), %rax	 # this, tmp94
	movq	16(%rax), %rdx	 # this_9(D)->_M_impl._M_end_of_storage, _1
 # C:/Program Files/CodeBlocks/MinGW/lib/gcc/x86_64-w64-mingw32/8.1.0/include/c++/bits/stl_vector.h:286: 		      _M_impl._M_end_of_storage - _M_impl._M_start);
	movq	16(%rbp), %rax	 # this, tmp95
	movq	(%rax), %rax	 # this_9(D)->_M_impl._M_start, _2
 # C:/Program Files/CodeBlocks/MinGW/lib/gcc/x86_64-w64-mingw32/8.1.0/include/c++/bits/stl_vector.h:286: 		      _M_impl._M_end_of_storage - _M_impl._M_start);
	subq	%rax, %rdx	 # _2, _1
	movq	%rdx, %rax	 # _1, _3
	sarq	$2, %rax	 #, tmp96
 # C:/Program Files/CodeBlocks/MinGW/lib/gcc/x86_64-w64-mingw32/8.1.0/include/c++/bits/stl_vector.h:285: 	_M_deallocate(_M_impl._M_start,
	movq	%rax, %rdx	 # _4, _5
	movq	16(%rbp), %rax	 # this, tmp97
	movq	(%rax), %rax	 # this_9(D)->_M_impl._M_start, _6
	movq	%rdx, %r8	 # _5,
	movq	%rax, %rdx	 # _6,
	movq	16(%rbp), %rcx	 # this,
	call	_ZNSt12_Vector_baseIiSaIiEE13_M_deallocateEPiy	 #
 # C:/Program Files/CodeBlocks/MinGW/lib/gcc/x86_64-w64-mingw32/8.1.0/include/c++/bits/stl_vector.h:287:       }
	movq	16(%rbp), %rax	 # this, _7
	movq	%rax, %rcx	 # _7,
	call	_ZNSt12_Vector_baseIiSaIiEE12_Vector_implD1Ev	 #
	nop	
	addq	$32, %rsp	 #,
	popq	%rbp	 #
	ret	
	.seh_handler	__gxx_personality_seh0, @unwind, @except
	.seh_handlerdata
.LLSDA9620:
	.byte	0xff
	.byte	0xff
	.byte	0x1
	.uleb128 .LLSDACSE9620-.LLSDACSB9620
.LLSDACSB9620:
.LLSDACSE9620:
	.section	.text$_ZNSt12_Vector_baseIiSaIiEED2Ev,"x"
	.linkonce discard
	.seh_endproc
	.section	.text$_ZNSt12_Vector_baseIiSaIiEE19_M_get_Tp_allocatorEv,"x"
	.linkonce discard
	.align 2
	.globl	_ZNSt12_Vector_baseIiSaIiEE19_M_get_Tp_allocatorEv
	.def	_ZNSt12_Vector_baseIiSaIiEE19_M_get_Tp_allocatorEv;	.scl	2;	.type	32;	.endef
	.seh_proc	_ZNSt12_Vector_baseIiSaIiEE19_M_get_Tp_allocatorEv
_ZNSt12_Vector_baseIiSaIiEE19_M_get_Tp_allocatorEv:
.LFB9622:
	pushq	%rbp	 #
	.seh_pushreg	%rbp
	movq	%rsp, %rbp	 #,
	.seh_setframe	%rbp, 0
	.seh_endprologue
	movq	%rcx, 16(%rbp)	 # this, this
 # C:/Program Files/CodeBlocks/MinGW/lib/gcc/x86_64-w64-mingw32/8.1.0/include/c++/bits/stl_vector.h:238:       { return *static_cast<_Tp_alloc_type*>(&this->_M_impl); }
	movq	16(%rbp), %rax	 # this, _2
 # C:/Program Files/CodeBlocks/MinGW/lib/gcc/x86_64-w64-mingw32/8.1.0/include/c++/bits/stl_vector.h:238:       { return *static_cast<_Tp_alloc_type*>(&this->_M_impl); }
	popq	%rbp	 #
	ret	
	.seh_endproc
	.section	.text$_ZSt8_DestroyIPiiEvT_S1_RSaIT0_E,"x"
	.linkonce discard
	.globl	_ZSt8_DestroyIPiiEvT_S1_RSaIT0_E
	.def	_ZSt8_DestroyIPiiEvT_S1_RSaIT0_E;	.scl	2;	.type	32;	.endef
	.seh_proc	_ZSt8_DestroyIPiiEvT_S1_RSaIT0_E
_ZSt8_DestroyIPiiEvT_S1_RSaIT0_E:
.LFB9623:
	pushq	%rbp	 #
	.seh_pushreg	%rbp
	movq	%rsp, %rbp	 #,
	.seh_setframe	%rbp, 0
	subq	$32, %rsp	 #,
	.seh_stackalloc	32
	.seh_endprologue
	movq	%rcx, 16(%rbp)	 # __first, __first
	movq	%rdx, 24(%rbp)	 # __last, __last
	movq	%r8, 32(%rbp)	 # D.172701, D.172701
 # C:/Program Files/CodeBlocks/MinGW/lib/gcc/x86_64-w64-mingw32/8.1.0/include/c++/bits/stl_construct.h:206:       _Destroy(__first, __last);
	movq	24(%rbp), %rax	 # __last, tmp87
	movq	%rax, %rdx	 # tmp87,
	movq	16(%rbp), %rcx	 # __first,
	call	_ZSt8_DestroyIPiEvT_S1_	 #
 # C:/Program Files/CodeBlocks/MinGW/lib/gcc/x86_64-w64-mingw32/8.1.0/include/c++/bits/stl_construct.h:207:     }
	nop	
	addq	$32, %rsp	 #,
	popq	%rbp	 #
	ret	
	.seh_endproc
	.section	.text$_ZN9__gnu_cxx17__normal_iteratorIPiSt6vectorIiSaIiEEEC1ERKS1_,"x"
	.linkonce discard
	.align 2
	.globl	_ZN9__gnu_cxx17__normal_iteratorIPiSt6vectorIiSaIiEEEC1ERKS1_
	.def	_ZN9__gnu_cxx17__normal_iteratorIPiSt6vectorIiSaIiEEEC1ERKS1_;	.scl	2;	.type	32;	.endef
	.seh_proc	_ZN9__gnu_cxx17__normal_iteratorIPiSt6vectorIiSaIiEEEC1ERKS1_
_ZN9__gnu_cxx17__normal_iteratorIPiSt6vectorIiSaIiEEEC1ERKS1_:
.LFB9626:
	pushq	%rbp	 #
	.seh_pushreg	%rbp
	movq	%rsp, %rbp	 #,
	.seh_setframe	%rbp, 0
	.seh_endprologue
	movq	%rcx, 16(%rbp)	 # this, this
	movq	%rdx, 24(%rbp)	 # __i, __i
 # C:/Program Files/CodeBlocks/MinGW/lib/gcc/x86_64-w64-mingw32/8.1.0/include/c++/bits/stl_iterator.h:781:       : _M_current(__i) { }
	movq	24(%rbp), %rax	 # __i, tmp88
	movq	(%rax), %rdx	 # *__i_5(D), _1
	movq	16(%rbp), %rax	 # this, tmp89
	movq	%rdx, (%rax)	 # _1, this_3(D)->_M_current
 # C:/Program Files/CodeBlocks/MinGW/lib/gcc/x86_64-w64-mingw32/8.1.0/include/c++/bits/stl_iterator.h:781:       : _M_current(__i) { }
	nop	
	popq	%rbp	 #
	ret	
	.seh_endproc
	.section	.text$_ZNK9__gnu_cxx17__normal_iteratorIPiSt6vectorIiSaIiEEE4baseEv,"x"
	.linkonce discard
	.align 2
	.globl	_ZNK9__gnu_cxx17__normal_iteratorIPiSt6vectorIiSaIiEEE4baseEv
	.def	_ZNK9__gnu_cxx17__normal_iteratorIPiSt6vectorIiSaIiEEE4baseEv;	.scl	2;	.type	32;	.endef
	.seh_proc	_ZNK9__gnu_cxx17__normal_iteratorIPiSt6vectorIiSaIiEEE4baseEv
_ZNK9__gnu_cxx17__normal_iteratorIPiSt6vectorIiSaIiEEE4baseEv:
.LFB9627:
	pushq	%rbp	 #
	.seh_pushreg	%rbp
	movq	%rsp, %rbp	 #,
	.seh_setframe	%rbp, 0
	.seh_endprologue
	movq	%rcx, 16(%rbp)	 # this, this
 # C:/Program Files/CodeBlocks/MinGW/lib/gcc/x86_64-w64-mingw32/8.1.0/include/c++/bits/stl_iterator.h:846:       { return _M_current; }
	movq	16(%rbp), %rax	 # this, _2
 # C:/Program Files/CodeBlocks/MinGW/lib/gcc/x86_64-w64-mingw32/8.1.0/include/c++/bits/stl_iterator.h:846:       { return _M_current; }
	popq	%rbp	 #
	ret	
	.seh_endproc
	.section	.text$_ZSt4moveIRiEONSt16remove_referenceIT_E4typeEOS2_,"x"
	.linkonce discard
	.globl	_ZSt4moveIRiEONSt16remove_referenceIT_E4typeEOS2_
	.def	_ZSt4moveIRiEONSt16remove_referenceIT_E4typeEOS2_;	.scl	2;	.type	32;	.endef
	.seh_proc	_ZSt4moveIRiEONSt16remove_referenceIT_E4typeEOS2_
_ZSt4moveIRiEONSt16remove_referenceIT_E4typeEOS2_:
.LFB9628:
	pushq	%rbp	 #
	.seh_pushreg	%rbp
	movq	%rsp, %rbp	 #,
	.seh_setframe	%rbp, 0
	.seh_endprologue
	movq	%rcx, 16(%rbp)	 # __t, __t
 # C:/Program Files/CodeBlocks/MinGW/lib/gcc/x86_64-w64-mingw32/8.1.0/include/c++/bits/move.h:100:     { return static_cast<typename std::remove_reference<_Tp>::type&&>(__t); }
	movq	16(%rbp), %rax	 # __t, _2
 # C:/Program Files/CodeBlocks/MinGW/lib/gcc/x86_64-w64-mingw32/8.1.0/include/c++/bits/move.h:100:     { return static_cast<typename std::remove_reference<_Tp>::type&&>(__t); }
	popq	%rbp	 #
	ret	
	.seh_endproc
	.section	.text$_ZNSt6vectorIiSaIiEE12emplace_backIJiEEEvDpOT_,"x"
	.linkonce discard
	.align 2
	.globl	_ZNSt6vectorIiSaIiEE12emplace_backIJiEEEvDpOT_
	.def	_ZNSt6vectorIiSaIiEE12emplace_backIJiEEEvDpOT_;	.scl	2;	.type	32;	.endef
	.seh_proc	_ZNSt6vectorIiSaIiEE12emplace_backIJiEEEvDpOT_
_ZNSt6vectorIiSaIiEE12emplace_backIJiEEEvDpOT_:
.LFB9629:
	pushq	%rbp	 #
	.seh_pushreg	%rbp
	pushq	%rbx	 #
	.seh_pushreg	%rbx
	subq	$40, %rsp	 #,
	.seh_stackalloc	40
	leaq	128(%rsp), %rbp	 #,
	.seh_setframe	%rbp, 128
	.seh_endprologue
	movq	%rcx, -64(%rbp)	 # this, this
	movq	%rdx, -56(%rbp)	 # __args#0, __args#0
 # C:/Program Files/CodeBlocks/MinGW/lib/gcc/x86_64-w64-mingw32/8.1.0/include/c++/bits/vector.tcc:100: 	if (this->_M_impl._M_finish != this->_M_impl._M_end_of_storage)
	movq	-64(%rbp), %rax	 # this, tmp96
	movq	8(%rax), %rdx	 # this_11(D)->D.152462._M_impl._M_finish, _1
 # C:/Program Files/CodeBlocks/MinGW/lib/gcc/x86_64-w64-mingw32/8.1.0/include/c++/bits/vector.tcc:100: 	if (this->_M_impl._M_finish != this->_M_impl._M_end_of_storage)
	movq	-64(%rbp), %rax	 # this, tmp97
	movq	16(%rax), %rax	 # this_11(D)->D.152462._M_impl._M_end_of_storage, _2
 # C:/Program Files/CodeBlocks/MinGW/lib/gcc/x86_64-w64-mingw32/8.1.0/include/c++/bits/vector.tcc:100: 	if (this->_M_impl._M_finish != this->_M_impl._M_end_of_storage)
	cmpq	%rax, %rdx	 # _2, _1
	je	.L43	 #,
 # C:/Program Files/CodeBlocks/MinGW/lib/gcc/x86_64-w64-mingw32/8.1.0/include/c++/bits/vector.tcc:103: 	    _Alloc_traits::construct(this->_M_impl, this->_M_impl._M_finish,
	movq	-56(%rbp), %rax	 # __args#0, tmp98
	movq	%rax, %rcx	 # tmp98,
	call	_ZSt7forwardIiEOT_RNSt16remove_referenceIS0_E4typeE	 #
	movq	%rax, %rcx	 #, _3
	movq	-64(%rbp), %rax	 # this, tmp99
	movq	8(%rax), %rdx	 # this_11(D)->D.152462._M_impl._M_finish, _4
 # C:/Program Files/CodeBlocks/MinGW/lib/gcc/x86_64-w64-mingw32/8.1.0/include/c++/bits/vector.tcc:103: 	    _Alloc_traits::construct(this->_M_impl, this->_M_impl._M_finish,
	movq	-64(%rbp), %rax	 # this, _5
 # C:/Program Files/CodeBlocks/MinGW/lib/gcc/x86_64-w64-mingw32/8.1.0/include/c++/bits/vector.tcc:103: 	    _Alloc_traits::construct(this->_M_impl, this->_M_impl._M_finish,
	movq	%rcx, %r8	 # _3,
	movq	%rax, %rcx	 # _5,
	call	_ZNSt16allocator_traitsISaIiEE9constructIiJiEEEvRS0_PT_DpOT0_	 #
 # C:/Program Files/CodeBlocks/MinGW/lib/gcc/x86_64-w64-mingw32/8.1.0/include/c++/bits/vector.tcc:105: 	    ++this->_M_impl._M_finish;
	movq	-64(%rbp), %rax	 # this, tmp100
	movq	8(%rax), %rax	 # this_11(D)->D.152462._M_impl._M_finish, _6
 # C:/Program Files/CodeBlocks/MinGW/lib/gcc/x86_64-w64-mingw32/8.1.0/include/c++/bits/vector.tcc:105: 	    ++this->_M_impl._M_finish;
	leaq	4(%rax), %rdx	 #, _7
	movq	-64(%rbp), %rax	 # this, tmp101
	movq	%rdx, 8(%rax)	 # _7, this_11(D)->D.152462._M_impl._M_finish
 # C:/Program Files/CodeBlocks/MinGW/lib/gcc/x86_64-w64-mingw32/8.1.0/include/c++/bits/vector.tcc:113:       }
	jmp	.L45	 #
.L43:
 # C:/Program Files/CodeBlocks/MinGW/lib/gcc/x86_64-w64-mingw32/8.1.0/include/c++/bits/vector.tcc:109: 	  _M_realloc_insert(end(), std::forward<_Args>(__args)...);
	movq	-56(%rbp), %rax	 # __args#0, tmp102
	movq	%rax, %rcx	 # tmp102,
	call	_ZSt7forwardIiEOT_RNSt16remove_referenceIS0_E4typeE	 #
	movq	%rax, %rbx	 #, _8
	movq	-64(%rbp), %rcx	 # this,
	call	_ZNSt6vectorIiSaIiEE3endEv	 #
	movq	%rbx, %r8	 # _8,
	movq	%rax, %rdx	 # D.179262,
	movq	-64(%rbp), %rcx	 # this,
	call	_ZNSt6vectorIiSaIiEE17_M_realloc_insertIJiEEEvN9__gnu_cxx17__normal_iteratorIPiS1_EEDpOT_	 #
.L45:
 # C:/Program Files/CodeBlocks/MinGW/lib/gcc/x86_64-w64-mingw32/8.1.0/include/c++/bits/vector.tcc:113:       }
	nop	
	addq	$40, %rsp	 #,
	popq	%rbx	 #
	popq	%rbp	 #
	ret	
	.seh_endproc
	.section	.text$_ZNSt12_Vector_baseIiSaIiEE12_Vector_implC1Ev,"x"
	.linkonce discard
	.align 2
	.globl	_ZNSt12_Vector_baseIiSaIiEE12_Vector_implC1Ev
	.def	_ZNSt12_Vector_baseIiSaIiEE12_Vector_implC1Ev;	.scl	2;	.type	32;	.endef
	.seh_proc	_ZNSt12_Vector_baseIiSaIiEE12_Vector_implC1Ev
_ZNSt12_Vector_baseIiSaIiEE12_Vector_implC1Ev:
.LFB9779:
	pushq	%rbp	 #
	.seh_pushreg	%rbp
	movq	%rsp, %rbp	 #,
	.seh_setframe	%rbp, 0
	subq	$32, %rsp	 #,
	.seh_stackalloc	32
	.seh_endprologue
	movq	%rcx, 16(%rbp)	 # this, this
 # C:/Program Files/CodeBlocks/MinGW/lib/gcc/x86_64-w64-mingw32/8.1.0/include/c++/bits/stl_vector.h:96: 	: _Tp_alloc_type(), _M_start(), _M_finish(), _M_end_of_storage()
	movq	16(%rbp), %rcx	 # this,
	call	_ZNSaIiEC2Ev	 #
	movq	16(%rbp), %rax	 # this, tmp87
	movq	$0, (%rax)	 #, this_2(D)->_M_start
	movq	16(%rbp), %rax	 # this, tmp88
	movq	$0, 8(%rax)	 #, this_2(D)->_M_finish
	movq	16(%rbp), %rax	 # this, tmp89
	movq	$0, 16(%rax)	 #, this_2(D)->_M_end_of_storage
 # C:/Program Files/CodeBlocks/MinGW/lib/gcc/x86_64-w64-mingw32/8.1.0/include/c++/bits/stl_vector.h:97: 	{ }
	nop	
	addq	$32, %rsp	 #,
	popq	%rbp	 #
	ret	
	.seh_endproc
	.section	.text$_ZNSaIiED2Ev,"x"
	.linkonce discard
	.align 2
	.globl	_ZNSaIiED2Ev
	.def	_ZNSaIiED2Ev;	.scl	2;	.type	32;	.endef
	.seh_proc	_ZNSaIiED2Ev
_ZNSaIiED2Ev:
.LFB9781:
	pushq	%rbp	 #
	.seh_pushreg	%rbp
	movq	%rsp, %rbp	 #,
	.seh_setframe	%rbp, 0
	subq	$32, %rsp	 #,
	.seh_stackalloc	32
	.seh_endprologue
	movq	%rcx, 16(%rbp)	 # this, this
 # C:/Program Files/CodeBlocks/MinGW/lib/gcc/x86_64-w64-mingw32/8.1.0/include/c++/bits/allocator.h:139:       ~allocator() throw() { }
	movq	16(%rbp), %rcx	 # this,
	call	_ZN9__gnu_cxx13new_allocatorIiED2Ev	 #
	nop	
	addq	$32, %rsp	 #,
	popq	%rbp	 #
	ret	
	.seh_endproc
	.section	.text$_ZNSt12_Vector_baseIiSaIiEE13_M_deallocateEPiy,"x"
	.linkonce discard
	.align 2
	.globl	_ZNSt12_Vector_baseIiSaIiEE13_M_deallocateEPiy
	.def	_ZNSt12_Vector_baseIiSaIiEE13_M_deallocateEPiy;	.scl	2;	.type	32;	.endef
	.seh_proc	_ZNSt12_Vector_baseIiSaIiEE13_M_deallocateEPiy
_ZNSt12_Vector_baseIiSaIiEE13_M_deallocateEPiy:
.LFB9783:
	pushq	%rbp	 #
	.seh_pushreg	%rbp
	movq	%rsp, %rbp	 #,
	.seh_setframe	%rbp, 0
	subq	$32, %rsp	 #,
	.seh_stackalloc	32
	.seh_endprologue
	movq	%rcx, 16(%rbp)	 # this, this
	movq	%rdx, 24(%rbp)	 # __p, __p
	movq	%r8, 32(%rbp)	 # __n, __n
 # C:/Program Files/CodeBlocks/MinGW/lib/gcc/x86_64-w64-mingw32/8.1.0/include/c++/bits/stl_vector.h:303: 	if (__p)
	cmpq	$0, 24(%rbp)	 #, __p
	je	.L50	 #,
 # C:/Program Files/CodeBlocks/MinGW/lib/gcc/x86_64-w64-mingw32/8.1.0/include/c++/bits/stl_vector.h:304: 	  _Tr::deallocate(_M_impl, __p, __n);
	movq	16(%rbp), %rax	 # this, _1
 # C:/Program Files/CodeBlocks/MinGW/lib/gcc/x86_64-w64-mingw32/8.1.0/include/c++/bits/stl_vector.h:304: 	  _Tr::deallocate(_M_impl, __p, __n);
	movq	32(%rbp), %rcx	 # __n, tmp88
	movq	24(%rbp), %rdx	 # __p, tmp89
	movq	%rcx, %r8	 # tmp88,
	movq	%rax, %rcx	 # _1,
	call	_ZNSt16allocator_traitsISaIiEE10deallocateERS0_Piy	 #
.L50:
 # C:/Program Files/CodeBlocks/MinGW/lib/gcc/x86_64-w64-mingw32/8.1.0/include/c++/bits/stl_vector.h:305:       }
	nop	
	addq	$32, %rsp	 #,
	popq	%rbp	 #
	ret	
	.seh_endproc
	.section	.text$_ZSt8_DestroyIPiEvT_S1_,"x"
	.linkonce discard
	.globl	_ZSt8_DestroyIPiEvT_S1_
	.def	_ZSt8_DestroyIPiEvT_S1_;	.scl	2;	.type	32;	.endef
	.seh_proc	_ZSt8_DestroyIPiEvT_S1_
_ZSt8_DestroyIPiEvT_S1_:
.LFB9784:
	pushq	%rbp	 #
	.seh_pushreg	%rbp
	movq	%rsp, %rbp	 #,
	.seh_setframe	%rbp, 0
	subq	$32, %rsp	 #,
	.seh_stackalloc	32
	.seh_endprologue
	movq	%rcx, 16(%rbp)	 # __first, __first
	movq	%rdx, 24(%rbp)	 # __last, __last
 # C:/Program Files/CodeBlocks/MinGW/lib/gcc/x86_64-w64-mingw32/8.1.0/include/c++/bits/stl_construct.h:137: 	__destroy(__first, __last);
	movq	24(%rbp), %rax	 # __last, tmp87
	movq	%rax, %rdx	 # tmp87,
	movq	16(%rbp), %rcx	 # __first,
	call	_ZNSt12_Destroy_auxILb1EE9__destroyIPiEEvT_S3_	 #
 # C:/Program Files/CodeBlocks/MinGW/lib/gcc/x86_64-w64-mingw32/8.1.0/include/c++/bits/stl_construct.h:138:     }
	nop	
	addq	$32, %rsp	 #,
	popq	%rbp	 #
	ret	
	.seh_endproc
	.section	.text$_ZNSt16allocator_traitsISaIiEE9constructIiJiEEEvRS0_PT_DpOT0_,"x"
	.linkonce discard
	.globl	_ZNSt16allocator_traitsISaIiEE9constructIiJiEEEvRS0_PT_DpOT0_
	.def	_ZNSt16allocator_traitsISaIiEE9constructIiJiEEEvRS0_PT_DpOT0_;	.scl	2;	.type	32;	.endef
	.seh_proc	_ZNSt16allocator_traitsISaIiEE9constructIiJiEEEvRS0_PT_DpOT0_
_ZNSt16allocator_traitsISaIiEE9constructIiJiEEEvRS0_PT_DpOT0_:
.LFB9785:
	pushq	%rbp	 #
	.seh_pushreg	%rbp
	movq	%rsp, %rbp	 #,
	.seh_setframe	%rbp, 0
	subq	$32, %rsp	 #,
	.seh_stackalloc	32
	.seh_endprologue
	movq	%rcx, 16(%rbp)	 # __a, __a
	movq	%rdx, 24(%rbp)	 # __p, __p
	movq	%r8, 32(%rbp)	 # __args#0, __args#0
 # C:/Program Files/CodeBlocks/MinGW/lib/gcc/x86_64-w64-mingw32/8.1.0/include/c++/bits/alloc_traits.h:475: 	{ __a.construct(__p, std::forward<_Args>(__args)...); }
	movq	32(%rbp), %rax	 # __args#0, tmp88
	movq	%rax, %rcx	 # tmp88,
	call	_ZSt7forwardIiEOT_RNSt16remove_referenceIS0_E4typeE	 #
	movq	%rax, %rdx	 #, _1
	movq	24(%rbp), %rax	 # __p, tmp89
	movq	%rdx, %r8	 # _1,
	movq	%rax, %rdx	 # tmp89,
	movq	16(%rbp), %rcx	 # __a,
	call	_ZN9__gnu_cxx13new_allocatorIiE9constructIiJiEEEvPT_DpOT0_	 #
 # C:/Program Files/CodeBlocks/MinGW/lib/gcc/x86_64-w64-mingw32/8.1.0/include/c++/bits/alloc_traits.h:475: 	{ __a.construct(__p, std::forward<_Args>(__args)...); }
	nop	
	addq	$32, %rsp	 #,
	popq	%rbp	 #
	ret	
	.seh_endproc
	.section .rdata,"dr"
.LC1:
	.ascii "vector::_M_realloc_insert\0"
	.section	.text$_ZNSt6vectorIiSaIiEE17_M_realloc_insertIJiEEEvN9__gnu_cxx17__normal_iteratorIPiS1_EEDpOT_,"x"
	.linkonce discard
	.align 2
	.globl	_ZNSt6vectorIiSaIiEE17_M_realloc_insertIJiEEEvN9__gnu_cxx17__normal_iteratorIPiS1_EEDpOT_
	.def	_ZNSt6vectorIiSaIiEE17_M_realloc_insertIJiEEEvN9__gnu_cxx17__normal_iteratorIPiS1_EEDpOT_;	.scl	2;	.type	32;	.endef
	.seh_proc	_ZNSt6vectorIiSaIiEE17_M_realloc_insertIJiEEEvN9__gnu_cxx17__normal_iteratorIPiS1_EEDpOT_
_ZNSt6vectorIiSaIiEE17_M_realloc_insertIJiEEEvN9__gnu_cxx17__normal_iteratorIPiS1_EEDpOT_:
.LFB9786:
	pushq	%rbp	 #
	.seh_pushreg	%rbp
	pushq	%rbx	 #
	.seh_pushreg	%rbx
	subq	$104, %rsp	 #,
	.seh_stackalloc	104
	leaq	128(%rsp), %rbp	 #,
	.seh_setframe	%rbp, 128
	.seh_endprologue
	movq	%rcx, 0(%rbp)	 # this, this
	movq	%rdx, 8(%rbp)	 # __position, __position
	movq	%r8, 16(%rbp)	 # __args#0, __args#0
 # C:/Program Files/CodeBlocks/MinGW/lib/gcc/x86_64-w64-mingw32/8.1.0/include/c++/bits/vector.tcc:422:       const size_type __len =
	leaq	.LC1(%rip), %r8	 #,
	movl	$1, %edx	 #,
	movq	0(%rbp), %rcx	 # this,
.LEHB0:
	call	_ZNKSt6vectorIiSaIiEE12_M_check_lenEyPKc	 #
	movq	%rax, -48(%rbp)	 # _38, __len
 # C:/Program Files/CodeBlocks/MinGW/lib/gcc/x86_64-w64-mingw32/8.1.0/include/c++/bits/vector.tcc:424:       pointer __old_start = this->_M_impl._M_start;
	movq	0(%rbp), %rax	 # this, tmp122
	movq	(%rax), %rax	 # this_36(D)->D.152462._M_impl._M_start, tmp123
	movq	%rax, -56(%rbp)	 # tmp123, __old_start
 # C:/Program Files/CodeBlocks/MinGW/lib/gcc/x86_64-w64-mingw32/8.1.0/include/c++/bits/vector.tcc:425:       pointer __old_finish = this->_M_impl._M_finish;
	movq	0(%rbp), %rax	 # this, tmp124
	movq	8(%rax), %rax	 # this_36(D)->D.152462._M_impl._M_finish, tmp125
	movq	%rax, -64(%rbp)	 # tmp125, __old_finish
 # C:/Program Files/CodeBlocks/MinGW/lib/gcc/x86_64-w64-mingw32/8.1.0/include/c++/bits/vector.tcc:426:       const size_type __elems_before = __position - begin();
	movq	0(%rbp), %rcx	 # this,
	call	_ZNSt6vectorIiSaIiEE5beginEv	 #
	movq	%rax, -88(%rbp)	 # tmp127, D.175601
	leaq	-88(%rbp), %rdx	 #, tmp128
	leaq	8(%rbp), %rax	 #, tmp129
	movq	%rax, %rcx	 # tmp129,
	call	_ZN9__gnu_cxxmiIPiSt6vectorIiSaIiEEEENS_17__normal_iteratorIT_T0_E15difference_typeERKS8_SB_	 #
 # C:/Program Files/CodeBlocks/MinGW/lib/gcc/x86_64-w64-mingw32/8.1.0/include/c++/bits/vector.tcc:426:       const size_type __elems_before = __position - begin();
	movq	%rax, -72(%rbp)	 # _1, __elems_before
 # C:/Program Files/CodeBlocks/MinGW/lib/gcc/x86_64-w64-mingw32/8.1.0/include/c++/bits/vector.tcc:427:       pointer __new_start(this->_M_allocate(__len));
	movq	0(%rbp), %rax	 # this, _2
	movq	-48(%rbp), %rdx	 # __len, tmp130
	movq	%rax, %rcx	 # _2,
	call	_ZNSt12_Vector_baseIiSaIiEE11_M_allocateEy	 #
.LEHE0:
	movq	%rax, -80(%rbp)	 # _47, __new_start
 # C:/Program Files/CodeBlocks/MinGW/lib/gcc/x86_64-w64-mingw32/8.1.0/include/c++/bits/vector.tcc:428:       pointer __new_finish(__new_start);
	movq	-80(%rbp), %rax	 # __new_start, tmp131
	movq	%rax, -40(%rbp)	 # tmp131, __new_finish
 # C:/Program Files/CodeBlocks/MinGW/lib/gcc/x86_64-w64-mingw32/8.1.0/include/c++/bits/vector.tcc:436: 	  _Alloc_traits::construct(this->_M_impl,
	movq	16(%rbp), %rax	 # __args#0, tmp132
	movq	%rax, %rcx	 # tmp132,
	call	_ZSt7forwardIiEOT_RNSt16remove_referenceIS0_E4typeE	 #
	movq	%rax, %rcx	 #, _3
 # C:/Program Files/CodeBlocks/MinGW/lib/gcc/x86_64-w64-mingw32/8.1.0/include/c++/bits/vector.tcc:437: 				   __new_start + __elems_before,
	movq	-72(%rbp), %rax	 # __elems_before, tmp133
	leaq	0(,%rax,4), %rdx	 #, _4
 # C:/Program Files/CodeBlocks/MinGW/lib/gcc/x86_64-w64-mingw32/8.1.0/include/c++/bits/vector.tcc:436: 	  _Alloc_traits::construct(this->_M_impl,
	movq	-80(%rbp), %rax	 # __new_start, tmp134
	addq	%rax, %rdx	 # tmp134, _5
 # C:/Program Files/CodeBlocks/MinGW/lib/gcc/x86_64-w64-mingw32/8.1.0/include/c++/bits/vector.tcc:436: 	  _Alloc_traits::construct(this->_M_impl,
	movq	0(%rbp), %rax	 # this, _6
 # C:/Program Files/CodeBlocks/MinGW/lib/gcc/x86_64-w64-mingw32/8.1.0/include/c++/bits/vector.tcc:436: 	  _Alloc_traits::construct(this->_M_impl,
	movq	%rcx, %r8	 # _3,
	movq	%rax, %rcx	 # _6,
	call	_ZNSt16allocator_traitsISaIiEE9constructIiJiEEEvRS0_PT_DpOT0_	 #
 # C:/Program Files/CodeBlocks/MinGW/lib/gcc/x86_64-w64-mingw32/8.1.0/include/c++/bits/vector.tcc:443: 	  __new_finish = pointer();
	movq	$0, -40(%rbp)	 #, __new_finish
 # C:/Program Files/CodeBlocks/MinGW/lib/gcc/x86_64-w64-mingw32/8.1.0/include/c++/bits/vector.tcc:448: 	     __new_start, _M_get_Tp_allocator());
	movq	0(%rbp), %rax	 # this, _7
	movq	%rax, %rcx	 # _7,
	call	_ZNSt12_Vector_baseIiSaIiEE19_M_get_Tp_allocatorEv	 #
	movq	%rax, %rbx	 #, _8
 # C:/Program Files/CodeBlocks/MinGW/lib/gcc/x86_64-w64-mingw32/8.1.0/include/c++/bits/vector.tcc:447: 	    (__old_start, __position.base(),
	leaq	8(%rbp), %rax	 #, tmp135
	movq	%rax, %rcx	 # tmp135,
	call	_ZNK9__gnu_cxx17__normal_iteratorIPiSt6vectorIiSaIiEEE4baseEv	 #
	movq	(%rax), %rdx	 # *_9, _10
	movq	-80(%rbp), %rcx	 # __new_start, tmp136
	movq	-56(%rbp), %rax	 # __old_start, tmp137
	movq	%rbx, %r9	 # _8,
	movq	%rcx, %r8	 # tmp136,
	movq	%rax, %rcx	 # tmp137,
.LEHB1:
	call	_ZSt34__uninitialized_move_if_noexcept_aIPiS0_SaIiEET0_T_S3_S2_RT1_	 #
	movq	%rax, -40(%rbp)	 # _57, __new_finish
 # C:/Program Files/CodeBlocks/MinGW/lib/gcc/x86_64-w64-mingw32/8.1.0/include/c++/bits/vector.tcc:450: 	  ++__new_finish;
	addq	$4, -40(%rbp)	 #, __new_finish
 # C:/Program Files/CodeBlocks/MinGW/lib/gcc/x86_64-w64-mingw32/8.1.0/include/c++/bits/vector.tcc:455: 	     __new_finish, _M_get_Tp_allocator());
	movq	0(%rbp), %rax	 # this, _11
	movq	%rax, %rcx	 # _11,
	call	_ZNSt12_Vector_baseIiSaIiEE19_M_get_Tp_allocatorEv	 #
	movq	%rax, %rbx	 #, _12
 # C:/Program Files/CodeBlocks/MinGW/lib/gcc/x86_64-w64-mingw32/8.1.0/include/c++/bits/vector.tcc:454: 	    (__position.base(), __old_finish,
	leaq	8(%rbp), %rax	 #, tmp138
	movq	%rax, %rcx	 # tmp138,
	call	_ZNK9__gnu_cxx17__normal_iteratorIPiSt6vectorIiSaIiEEE4baseEv	 #
	movq	(%rax), %rax	 # *_13, _14
	movq	-40(%rbp), %rcx	 # __new_finish, tmp139
	movq	-64(%rbp), %rdx	 # __old_finish, tmp140
	movq	%rbx, %r9	 # _12,
	movq	%rcx, %r8	 # tmp139,
	movq	%rax, %rcx	 # _14,
	call	_ZSt34__uninitialized_move_if_noexcept_aIPiS0_SaIiEET0_T_S3_S2_RT1_	 #
.LEHE1:
 # C:/Program Files/CodeBlocks/MinGW/lib/gcc/x86_64-w64-mingw32/8.1.0/include/c++/bits/vector.tcc:454: 	    (__position.base(), __old_finish,
	movq	%rax, -40(%rbp)	 # _63, __new_finish
 # C:/Program Files/CodeBlocks/MinGW/lib/gcc/x86_64-w64-mingw32/8.1.0/include/c++/bits/vector.tcc:468:       std::_Destroy(__old_start, __old_finish, _M_get_Tp_allocator());
	movq	0(%rbp), %rax	 # this, _22
	movq	%rax, %rcx	 # _22,
	call	_ZNSt12_Vector_baseIiSaIiEE19_M_get_Tp_allocatorEv	 #
	movq	%rax, %rcx	 #, _23
 # C:/Program Files/CodeBlocks/MinGW/lib/gcc/x86_64-w64-mingw32/8.1.0/include/c++/bits/vector.tcc:468:       std::_Destroy(__old_start, __old_finish, _M_get_Tp_allocator());
	movq	-64(%rbp), %rdx	 # __old_finish, tmp141
	movq	-56(%rbp), %rax	 # __old_start, tmp142
	movq	%rcx, %r8	 # _23,
	movq	%rax, %rcx	 # tmp142,
.LEHB2:
	call	_ZSt8_DestroyIPiiEvT_S1_RSaIT0_E	 #
 # C:/Program Files/CodeBlocks/MinGW/lib/gcc/x86_64-w64-mingw32/8.1.0/include/c++/bits/vector.tcc:469:       _M_deallocate(__old_start,
	movq	0(%rbp), %rax	 # this, _24
 # C:/Program Files/CodeBlocks/MinGW/lib/gcc/x86_64-w64-mingw32/8.1.0/include/c++/bits/vector.tcc:470: 		    this->_M_impl._M_end_of_storage - __old_start);
	movq	0(%rbp), %rdx	 # this, tmp143
	movq	16(%rdx), %rdx	 # this_36(D)->D.152462._M_impl._M_end_of_storage, _25
 # C:/Program Files/CodeBlocks/MinGW/lib/gcc/x86_64-w64-mingw32/8.1.0/include/c++/bits/vector.tcc:470: 		    this->_M_impl._M_end_of_storage - __old_start);
	subq	-56(%rbp), %rdx	 # __old_start, _26
	sarq	$2, %rdx	 #, tmp144
 # C:/Program Files/CodeBlocks/MinGW/lib/gcc/x86_64-w64-mingw32/8.1.0/include/c++/bits/vector.tcc:469:       _M_deallocate(__old_start,
	movq	%rdx, %rcx	 # _27, _28
	movq	-56(%rbp), %rdx	 # __old_start, tmp145
	movq	%rcx, %r8	 # _28,
	movq	%rax, %rcx	 # _24,
	call	_ZNSt12_Vector_baseIiSaIiEE13_M_deallocateEPiy	 #
.LEHE2:
 # C:/Program Files/CodeBlocks/MinGW/lib/gcc/x86_64-w64-mingw32/8.1.0/include/c++/bits/vector.tcc:471:       this->_M_impl._M_start = __new_start;
	movq	0(%rbp), %rax	 # this, tmp146
	movq	-80(%rbp), %rdx	 # __new_start, tmp147
	movq	%rdx, (%rax)	 # tmp147, this_36(D)->D.152462._M_impl._M_start
 # C:/Program Files/CodeBlocks/MinGW/lib/gcc/x86_64-w64-mingw32/8.1.0/include/c++/bits/vector.tcc:472:       this->_M_impl._M_finish = __new_finish;
	movq	0(%rbp), %rax	 # this, tmp148
	movq	-40(%rbp), %rdx	 # __new_finish, tmp149
	movq	%rdx, 8(%rax)	 # tmp149, this_36(D)->D.152462._M_impl._M_finish
 # C:/Program Files/CodeBlocks/MinGW/lib/gcc/x86_64-w64-mingw32/8.1.0/include/c++/bits/vector.tcc:473:       this->_M_impl._M_end_of_storage = __new_start + __len;
	movq	-48(%rbp), %rax	 # __len, tmp150
	leaq	0(,%rax,4), %rdx	 #, _29
	movq	-80(%rbp), %rax	 # __new_start, tmp151
	addq	%rax, %rdx	 # tmp151, _30
 # C:/Program Files/CodeBlocks/MinGW/lib/gcc/x86_64-w64-mingw32/8.1.0/include/c++/bits/vector.tcc:473:       this->_M_impl._M_end_of_storage = __new_start + __len;
	movq	0(%rbp), %rax	 # this, tmp152
	movq	%rdx, 16(%rax)	 # _30, this_36(D)->D.152462._M_impl._M_end_of_storage
 # C:/Program Files/CodeBlocks/MinGW/lib/gcc/x86_64-w64-mingw32/8.1.0/include/c++/bits/vector.tcc:474:     }
	jmp	.L60	 #
.L58:
 # C:/Program Files/CodeBlocks/MinGW/lib/gcc/x86_64-w64-mingw32/8.1.0/include/c++/bits/vector.tcc:457:       __catch(...)
	movq	%rax, %rcx	 # _15,
	call	__cxa_begin_catch	 #
 # C:/Program Files/CodeBlocks/MinGW/lib/gcc/x86_64-w64-mingw32/8.1.0/include/c++/bits/vector.tcc:459: 	  if (!__new_finish)
	cmpq	$0, -40(%rbp)	 #, __new_finish
	jne	.L55	 #,
 # C:/Program Files/CodeBlocks/MinGW/lib/gcc/x86_64-w64-mingw32/8.1.0/include/c++/bits/vector.tcc:461: 				   __new_start + __elems_before);
	movq	-72(%rbp), %rax	 # __elems_before, tmp154
	leaq	0(,%rax,4), %rdx	 #, _16
 # C:/Program Files/CodeBlocks/MinGW/lib/gcc/x86_64-w64-mingw32/8.1.0/include/c++/bits/vector.tcc:460: 	    _Alloc_traits::destroy(this->_M_impl,
	movq	-80(%rbp), %rax	 # __new_start, tmp155
	addq	%rax, %rdx	 # tmp155, _17
 # C:/Program Files/CodeBlocks/MinGW/lib/gcc/x86_64-w64-mingw32/8.1.0/include/c++/bits/vector.tcc:460: 	    _Alloc_traits::destroy(this->_M_impl,
	movq	0(%rbp), %rax	 # this, _18
 # C:/Program Files/CodeBlocks/MinGW/lib/gcc/x86_64-w64-mingw32/8.1.0/include/c++/bits/vector.tcc:460: 	    _Alloc_traits::destroy(this->_M_impl,
	movq	%rax, %rcx	 # _18,
.LEHB3:
	call	_ZNSt16allocator_traitsISaIiEE7destroyIiEEvRS0_PT_	 #
	jmp	.L56	 #
.L55:
 # C:/Program Files/CodeBlocks/MinGW/lib/gcc/x86_64-w64-mingw32/8.1.0/include/c++/bits/vector.tcc:463: 	    std::_Destroy(__new_start, __new_finish, _M_get_Tp_allocator());
	movq	0(%rbp), %rax	 # this, _19
	movq	%rax, %rcx	 # _19,
	call	_ZNSt12_Vector_baseIiSaIiEE19_M_get_Tp_allocatorEv	 #
	movq	%rax, %rcx	 #, _20
 # C:/Program Files/CodeBlocks/MinGW/lib/gcc/x86_64-w64-mingw32/8.1.0/include/c++/bits/vector.tcc:463: 	    std::_Destroy(__new_start, __new_finish, _M_get_Tp_allocator());
	movq	-40(%rbp), %rdx	 # __new_finish, tmp156
	movq	-80(%rbp), %rax	 # __new_start, tmp157
	movq	%rcx, %r8	 # _20,
	movq	%rax, %rcx	 # tmp157,
	call	_ZSt8_DestroyIPiiEvT_S1_RSaIT0_E	 #
.L56:
 # C:/Program Files/CodeBlocks/MinGW/lib/gcc/x86_64-w64-mingw32/8.1.0/include/c++/bits/vector.tcc:464: 	  _M_deallocate(__new_start, __len);
	movq	0(%rbp), %rax	 # this, _21
	movq	-48(%rbp), %rcx	 # __len, tmp158
	movq	-80(%rbp), %rdx	 # __new_start, tmp159
	movq	%rcx, %r8	 # tmp158,
	movq	%rax, %rcx	 # _21,
	call	_ZNSt12_Vector_baseIiSaIiEE13_M_deallocateEPiy	 #
 # C:/Program Files/CodeBlocks/MinGW/lib/gcc/x86_64-w64-mingw32/8.1.0/include/c++/bits/vector.tcc:465: 	  __throw_exception_again;
	call	__cxa_rethrow	 #
.LEHE3:
.L59:
	movq	%rax, %rbx	 #, tmp160
 # C:/Program Files/CodeBlocks/MinGW/lib/gcc/x86_64-w64-mingw32/8.1.0/include/c++/bits/vector.tcc:457:       __catch(...)
	call	__cxa_end_catch	 #
	movq	%rbx, %rax	 # tmp160, D.179451
	movq	%rax, %rcx	 # D.179451,
.LEHB4:
	call	_Unwind_Resume	 #
	nop	
.LEHE4:
.L60:
 # C:/Program Files/CodeBlocks/MinGW/lib/gcc/x86_64-w64-mingw32/8.1.0/include/c++/bits/vector.tcc:474:     }
	addq	$104, %rsp	 #,
	popq	%rbx	 #
	popq	%rbp	 #
	ret	
	.seh_handler	__gxx_personality_seh0, @unwind, @except
	.seh_handlerdata
	.align 4
.LLSDA9786:
	.byte	0xff
	.byte	0x9b
	.uleb128 .LLSDATT9786-.LLSDATTD9786
.LLSDATTD9786:
	.byte	0x1
	.uleb128 .LLSDACSE9786-.LLSDACSB9786
.LLSDACSB9786:
	.uleb128 .LEHB0-.LFB9786
	.uleb128 .LEHE0-.LEHB0
	.uleb128 0
	.uleb128 0
	.uleb128 .LEHB1-.LFB9786
	.uleb128 .LEHE1-.LEHB1
	.uleb128 .L58-.LFB9786
	.uleb128 0x1
	.uleb128 .LEHB2-.LFB9786
	.uleb128 .LEHE2-.LEHB2
	.uleb128 0
	.uleb128 0
	.uleb128 .LEHB3-.LFB9786
	.uleb128 .LEHE3-.LEHB3
	.uleb128 .L59-.LFB9786
	.uleb128 0
	.uleb128 .LEHB4-.LFB9786
	.uleb128 .LEHE4-.LEHB4
	.uleb128 0
	.uleb128 0
.LLSDACSE9786:
	.byte	0x1
	.byte	0
	.align 4
	.long	0

.LLSDATT9786:
	.section	.text$_ZNSt6vectorIiSaIiEE17_M_realloc_insertIJiEEEvN9__gnu_cxx17__normal_iteratorIPiS1_EEDpOT_,"x"
	.linkonce discard
	.seh_endproc
	.section	.text$_ZNSaIiEC2Ev,"x"
	.linkonce discard
	.align 2
	.globl	_ZNSaIiEC2Ev
	.def	_ZNSaIiEC2Ev;	.scl	2;	.type	32;	.endef
	.seh_proc	_ZNSaIiEC2Ev
_ZNSaIiEC2Ev:
.LFB9890:
	pushq	%rbp	 #
	.seh_pushreg	%rbp
	movq	%rsp, %rbp	 #,
	.seh_setframe	%rbp, 0
	subq	$32, %rsp	 #,
	.seh_stackalloc	32
	.seh_endprologue
	movq	%rcx, 16(%rbp)	 # this, this
 # C:/Program Files/CodeBlocks/MinGW/lib/gcc/x86_64-w64-mingw32/8.1.0/include/c++/bits/allocator.h:131:       allocator() throw() { }
	movq	16(%rbp), %rcx	 # this,
	call	_ZN9__gnu_cxx13new_allocatorIiEC2Ev	 #
 # C:/Program Files/CodeBlocks/MinGW/lib/gcc/x86_64-w64-mingw32/8.1.0/include/c++/bits/allocator.h:131:       allocator() throw() { }
	nop	
	addq	$32, %rsp	 #,
	popq	%rbp	 #
	ret	
	.seh_endproc
	.section	.text$_ZN9__gnu_cxx13new_allocatorIiED2Ev,"x"
	.linkonce discard
	.align 2
	.globl	_ZN9__gnu_cxx13new_allocatorIiED2Ev
	.def	_ZN9__gnu_cxx13new_allocatorIiED2Ev;	.scl	2;	.type	32;	.endef
	.seh_proc	_ZN9__gnu_cxx13new_allocatorIiED2Ev
_ZN9__gnu_cxx13new_allocatorIiED2Ev:
.LFB9893:
	pushq	%rbp	 #
	.seh_pushreg	%rbp
	movq	%rsp, %rbp	 #,
	.seh_setframe	%rbp, 0
	.seh_endprologue
	movq	%rcx, 16(%rbp)	 # this, this
 # C:/Program Files/CodeBlocks/MinGW/lib/gcc/x86_64-w64-mingw32/8.1.0/include/c++/ext/new_allocator.h:86:       ~new_allocator() _GLIBCXX_USE_NOEXCEPT { }
	nop	
	popq	%rbp	 #
	ret	
	.seh_endproc
	.section	.text$_ZNSt16allocator_traitsISaIiEE10deallocateERS0_Piy,"x"
	.linkonce discard
	.globl	_ZNSt16allocator_traitsISaIiEE10deallocateERS0_Piy
	.def	_ZNSt16allocator_traitsISaIiEE10deallocateERS0_Piy;	.scl	2;	.type	32;	.endef
	.seh_proc	_ZNSt16allocator_traitsISaIiEE10deallocateERS0_Piy
_ZNSt16allocator_traitsISaIiEE10deallocateERS0_Piy:
.LFB9895:
	pushq	%rbp	 #
	.seh_pushreg	%rbp
	movq	%rsp, %rbp	 #,
	.seh_setframe	%rbp, 0
	subq	$32, %rsp	 #,
	.seh_stackalloc	32
	.seh_endprologue
	movq	%rcx, 16(%rbp)	 # __a, __a
	movq	%rdx, 24(%rbp)	 # __p, __p
	movq	%r8, 32(%rbp)	 # __n, __n
 # C:/Program Files/CodeBlocks/MinGW/lib/gcc/x86_64-w64-mingw32/8.1.0/include/c++/bits/alloc_traits.h:462:       { __a.deallocate(__p, __n); }
	movq	32(%rbp), %rdx	 # __n, tmp87
	movq	24(%rbp), %rax	 # __p, tmp88
	movq	%rdx, %r8	 # tmp87,
	movq	%rax, %rdx	 # tmp88,
	movq	16(%rbp), %rcx	 # __a,
	call	_ZN9__gnu_cxx13new_allocatorIiE10deallocateEPiy	 #
 # C:/Program Files/CodeBlocks/MinGW/lib/gcc/x86_64-w64-mingw32/8.1.0/include/c++/bits/alloc_traits.h:462:       { __a.deallocate(__p, __n); }
	nop	
	addq	$32, %rsp	 #,
	popq	%rbp	 #
	ret	
	.seh_endproc
	.section	.text$_ZNSt12_Destroy_auxILb1EE9__destroyIPiEEvT_S3_,"x"
	.linkonce discard
	.globl	_ZNSt12_Destroy_auxILb1EE9__destroyIPiEEvT_S3_
	.def	_ZNSt12_Destroy_auxILb1EE9__destroyIPiEEvT_S3_;	.scl	2;	.type	32;	.endef
	.seh_proc	_ZNSt12_Destroy_auxILb1EE9__destroyIPiEEvT_S3_
_ZNSt12_Destroy_auxILb1EE9__destroyIPiEEvT_S3_:
.LFB9896:
	pushq	%rbp	 #
	.seh_pushreg	%rbp
	movq	%rsp, %rbp	 #,
	.seh_setframe	%rbp, 0
	.seh_endprologue
	movq	%rcx, 16(%rbp)	 # D.175589, D.175589
	movq	%rdx, 24(%rbp)	 # D.175590, D.175590
 # C:/Program Files/CodeBlocks/MinGW/lib/gcc/x86_64-w64-mingw32/8.1.0/include/c++/bits/stl_construct.h:117:         __destroy(_ForwardIterator, _ForwardIterator) { }
	nop	
	popq	%rbp	 #
	ret	
	.seh_endproc
	.section	.text$_ZN9__gnu_cxx13new_allocatorIiE9constructIiJiEEEvPT_DpOT0_,"x"
	.linkonce discard
	.align 2
	.globl	_ZN9__gnu_cxx13new_allocatorIiE9constructIiJiEEEvPT_DpOT0_
	.def	_ZN9__gnu_cxx13new_allocatorIiE9constructIiJiEEEvPT_DpOT0_;	.scl	2;	.type	32;	.endef
	.seh_proc	_ZN9__gnu_cxx13new_allocatorIiE9constructIiJiEEEvPT_DpOT0_
_ZN9__gnu_cxx13new_allocatorIiE9constructIiJiEEEvPT_DpOT0_:
.LFB9897:
	pushq	%rbp	 #
	.seh_pushreg	%rbp
	pushq	%rbx	 #
	.seh_pushreg	%rbx
	subq	$40, %rsp	 #,
	.seh_stackalloc	40
	leaq	128(%rsp), %rbp	 #,
	.seh_setframe	%rbp, 128
	.seh_endprologue
	movq	%rcx, -64(%rbp)	 # this, this
	movq	%rdx, -56(%rbp)	 # __p, __p
	movq	%r8, -48(%rbp)	 # __args#0, __args#0
 # C:/Program Files/CodeBlocks/MinGW/lib/gcc/x86_64-w64-mingw32/8.1.0/include/c++/ext/new_allocator.h:136: 	{ ::new((void *)__p) _Up(std::forward<_Args>(__args)...); }
	movq	-48(%rbp), %rax	 # __args#0, tmp91
	movq	%rax, %rcx	 # tmp91,
	call	_ZSt7forwardIiEOT_RNSt16remove_referenceIS0_E4typeE	 #
 # C:/Program Files/CodeBlocks/MinGW/lib/gcc/x86_64-w64-mingw32/8.1.0/include/c++/ext/new_allocator.h:136: 	{ ::new((void *)__p) _Up(std::forward<_Args>(__args)...); }
	movl	(%rax), %ebx	 # *_1, _5
	movq	-56(%rbp), %rax	 # __p, _7
	movq	%rax, %rdx	 # _7,
	movl	$4, %ecx	 #,
	call	_ZnwyPv	 #
	movl	%ebx, (%rax)	 # _5, MEM[(int *)_9]
 # C:/Program Files/CodeBlocks/MinGW/lib/gcc/x86_64-w64-mingw32/8.1.0/include/c++/ext/new_allocator.h:136: 	{ ::new((void *)__p) _Up(std::forward<_Args>(__args)...); }
	nop	
	addq	$40, %rsp	 #,
	popq	%rbx	 #
	popq	%rbp	 #
	ret	
	.seh_endproc
	.section	.text$_ZNKSt6vectorIiSaIiEE12_M_check_lenEyPKc,"x"
	.linkonce discard
	.align 2
	.globl	_ZNKSt6vectorIiSaIiEE12_M_check_lenEyPKc
	.def	_ZNKSt6vectorIiSaIiEE12_M_check_lenEyPKc;	.scl	2;	.type	32;	.endef
	.seh_proc	_ZNKSt6vectorIiSaIiEE12_M_check_lenEyPKc
_ZNKSt6vectorIiSaIiEE12_M_check_lenEyPKc:
.LFB9898:
	pushq	%rbp	 #
	.seh_pushreg	%rbp
	pushq	%rbx	 #
	.seh_pushreg	%rbx
	subq	$56, %rsp	 #,
	.seh_stackalloc	56
	leaq	128(%rsp), %rbp	 #,
	.seh_setframe	%rbp, 128
	.seh_endprologue
	movq	%rcx, -48(%rbp)	 # this, this
	movq	%rdx, -40(%rbp)	 # __n, __n
	movq	%r8, -32(%rbp)	 # __s, __s
 # C:/Program Files/CodeBlocks/MinGW/lib/gcc/x86_64-w64-mingw32/8.1.0/include/c++/bits/stl_vector.h:1637: 	if (max_size() - size() < __n)
	movq	-48(%rbp), %rcx	 # this,
	call	_ZNKSt6vectorIiSaIiEE8max_sizeEv	 #
	movq	%rax, %rbx	 #, _1
	movq	-48(%rbp), %rcx	 # this,
	call	_ZNKSt6vectorIiSaIiEE4sizeEv	 #
	subq	%rax, %rbx	 # _2, _1
	movq	%rbx, %rdx	 # _1, _3
 # C:/Program Files/CodeBlocks/MinGW/lib/gcc/x86_64-w64-mingw32/8.1.0/include/c++/bits/stl_vector.h:1637: 	if (max_size() - size() < __n)
	movq	-40(%rbp), %rax	 # __n, __n.8_4
	cmpq	%rax, %rdx	 # __n.8_4, _3
	setb	%al	 #, retval.7_19
 # C:/Program Files/CodeBlocks/MinGW/lib/gcc/x86_64-w64-mingw32/8.1.0/include/c++/bits/stl_vector.h:1637: 	if (max_size() - size() < __n)
	testb	%al, %al	 # retval.7_19
	je	.L67	 #,
 # C:/Program Files/CodeBlocks/MinGW/lib/gcc/x86_64-w64-mingw32/8.1.0/include/c++/bits/stl_vector.h:1638: 	  __throw_length_error(__N(__s));
	movq	-32(%rbp), %rax	 # __s, __s.9_5
	movq	%rax, %rcx	 # __s.9_5,
	call	_ZSt20__throw_length_errorPKc	 #
.L67:
 # C:/Program Files/CodeBlocks/MinGW/lib/gcc/x86_64-w64-mingw32/8.1.0/include/c++/bits/stl_vector.h:1640: 	const size_type __len = size() + std::max(size(), __n);
	movq	-48(%rbp), %rcx	 # this,
	call	_ZNKSt6vectorIiSaIiEE4sizeEv	 #
	movq	%rax, %rbx	 #, _6
 # C:/Program Files/CodeBlocks/MinGW/lib/gcc/x86_64-w64-mingw32/8.1.0/include/c++/bits/stl_vector.h:1640: 	const size_type __len = size() + std::max(size(), __n);
	movq	-48(%rbp), %rcx	 # this,
	call	_ZNKSt6vectorIiSaIiEE4sizeEv	 #
	movq	%rax, -96(%rbp)	 # _7, D.176546
	leaq	-40(%rbp), %rdx	 #, tmp101
	leaq	-96(%rbp), %rax	 #, tmp102
	movq	%rax, %rcx	 # tmp102,
	call	_ZSt3maxIyERKT_S2_S2_	 #
 # C:/Program Files/CodeBlocks/MinGW/lib/gcc/x86_64-w64-mingw32/8.1.0/include/c++/bits/stl_vector.h:1640: 	const size_type __len = size() + std::max(size(), __n);
	movq	(%rax), %rax	 # *_8, _9
 # C:/Program Files/CodeBlocks/MinGW/lib/gcc/x86_64-w64-mingw32/8.1.0/include/c++/bits/stl_vector.h:1640: 	const size_type __len = size() + std::max(size(), __n);
	addq	%rbx, %rax	 # _6, tmp103
	movq	%rax, -88(%rbp)	 # tmp103, __len
 # C:/Program Files/CodeBlocks/MinGW/lib/gcc/x86_64-w64-mingw32/8.1.0/include/c++/bits/stl_vector.h:1641: 	return (__len < size() || __len > max_size()) ? max_size() : __len;
	movq	-48(%rbp), %rcx	 # this,
	call	_ZNKSt6vectorIiSaIiEE4sizeEv	 #
 # C:/Program Files/CodeBlocks/MinGW/lib/gcc/x86_64-w64-mingw32/8.1.0/include/c++/bits/stl_vector.h:1641: 	return (__len < size() || __len > max_size()) ? max_size() : __len;
	cmpq	%rax, -88(%rbp)	 # _10, __len
	jb	.L68	 #,
 # C:/Program Files/CodeBlocks/MinGW/lib/gcc/x86_64-w64-mingw32/8.1.0/include/c++/bits/stl_vector.h:1641: 	return (__len < size() || __len > max_size()) ? max_size() : __len;
	movq	-48(%rbp), %rcx	 # this,
	call	_ZNKSt6vectorIiSaIiEE8max_sizeEv	 #
 # C:/Program Files/CodeBlocks/MinGW/lib/gcc/x86_64-w64-mingw32/8.1.0/include/c++/bits/stl_vector.h:1641: 	return (__len < size() || __len > max_size()) ? max_size() : __len;
	cmpq	%rax, -88(%rbp)	 # _11, __len
	jbe	.L69	 #,
.L68:
 # C:/Program Files/CodeBlocks/MinGW/lib/gcc/x86_64-w64-mingw32/8.1.0/include/c++/bits/stl_vector.h:1641: 	return (__len < size() || __len > max_size()) ? max_size() : __len;
	movq	-48(%rbp), %rcx	 # this,
	call	_ZNKSt6vectorIiSaIiEE8max_sizeEv	 #
	jmp	.L70	 #
.L69:
 # C:/Program Files/CodeBlocks/MinGW/lib/gcc/x86_64-w64-mingw32/8.1.0/include/c++/bits/stl_vector.h:1641: 	return (__len < size() || __len > max_size()) ? max_size() : __len;
	movq	-88(%rbp), %rax	 # __len, iftmp.10_12
.L70:
 # C:/Program Files/CodeBlocks/MinGW/lib/gcc/x86_64-w64-mingw32/8.1.0/include/c++/bits/stl_vector.h:1642:       }
	addq	$56, %rsp	 #,
	popq	%rbx	 #
	popq	%rbp	 #
	ret	
	.seh_endproc
	.section	.text$_ZN9__gnu_cxxmiIPiSt6vectorIiSaIiEEEENS_17__normal_iteratorIT_T0_E15difference_typeERKS8_SB_,"x"
	.linkonce discard
	.globl	_ZN9__gnu_cxxmiIPiSt6vectorIiSaIiEEEENS_17__normal_iteratorIT_T0_E15difference_typeERKS8_SB_
	.def	_ZN9__gnu_cxxmiIPiSt6vectorIiSaIiEEEENS_17__normal_iteratorIT_T0_E15difference_typeERKS8_SB_;	.scl	2;	.type	32;	.endef
	.seh_proc	_ZN9__gnu_cxxmiIPiSt6vectorIiSaIiEEEENS_17__normal_iteratorIT_T0_E15difference_typeERKS8_SB_
_ZN9__gnu_cxxmiIPiSt6vectorIiSaIiEEEENS_17__normal_iteratorIT_T0_E15difference_typeERKS8_SB_:
.LFB9899:
	pushq	%rbp	 #
	.seh_pushreg	%rbp
	pushq	%rbx	 #
	.seh_pushreg	%rbx
	subq	$40, %rsp	 #,
	.seh_stackalloc	40
	leaq	128(%rsp), %rbp	 #,
	.seh_setframe	%rbp, 128
	.seh_endprologue
	movq	%rcx, -64(%rbp)	 # __lhs, __lhs
	movq	%rdx, -56(%rbp)	 # __rhs, __rhs
 # C:/Program Files/CodeBlocks/MinGW/lib/gcc/x86_64-w64-mingw32/8.1.0/include/c++/bits/stl_iterator.h:966:     { return __lhs.base() - __rhs.base(); }
	movq	-64(%rbp), %rcx	 # __lhs,
	call	_ZNK9__gnu_cxx17__normal_iteratorIPiSt6vectorIiSaIiEEE4baseEv	 #
	movq	(%rax), %rbx	 # *_1, _2
	movq	-56(%rbp), %rax	 # __rhs, tmp94
	movq	%rax, %rcx	 # tmp94,
	call	_ZNK9__gnu_cxx17__normal_iteratorIPiSt6vectorIiSaIiEEE4baseEv	 #
	movq	(%rax), %rax	 # *_3, _4
	subq	%rax, %rbx	 # _4, _2
	movq	%rbx, %rax	 # _2, _5
 # C:/Program Files/CodeBlocks/MinGW/lib/gcc/x86_64-w64-mingw32/8.1.0/include/c++/bits/stl_iterator.h:966:     { return __lhs.base() - __rhs.base(); }
	sarq	$2, %rax	 #, tmp95
 # C:/Program Files/CodeBlocks/MinGW/lib/gcc/x86_64-w64-mingw32/8.1.0/include/c++/bits/stl_iterator.h:966:     { return __lhs.base() - __rhs.base(); }
	addq	$40, %rsp	 #,
	popq	%rbx	 #
	popq	%rbp	 #
	ret	
	.seh_endproc
	.section	.text$_ZNSt12_Vector_baseIiSaIiEE11_M_allocateEy,"x"
	.linkonce discard
	.align 2
	.globl	_ZNSt12_Vector_baseIiSaIiEE11_M_allocateEy
	.def	_ZNSt12_Vector_baseIiSaIiEE11_M_allocateEy;	.scl	2;	.type	32;	.endef
	.seh_proc	_ZNSt12_Vector_baseIiSaIiEE11_M_allocateEy
_ZNSt12_Vector_baseIiSaIiEE11_M_allocateEy:
.LFB9900:
	pushq	%rbp	 #
	.seh_pushreg	%rbp
	movq	%rsp, %rbp	 #,
	.seh_setframe	%rbp, 0
	subq	$32, %rsp	 #,
	.seh_stackalloc	32
	.seh_endprologue
	movq	%rcx, 16(%rbp)	 # this, this
	movq	%rdx, 24(%rbp)	 # __n, __n
 # C:/Program Files/CodeBlocks/MinGW/lib/gcc/x86_64-w64-mingw32/8.1.0/include/c++/bits/stl_vector.h:296: 	return __n != 0 ? _Tr::allocate(_M_impl, __n) : pointer();
	cmpq	$0, 24(%rbp)	 #, __n
	je	.L75	 #,
 # C:/Program Files/CodeBlocks/MinGW/lib/gcc/x86_64-w64-mingw32/8.1.0/include/c++/bits/stl_vector.h:296: 	return __n != 0 ? _Tr::allocate(_M_impl, __n) : pointer();
	movq	16(%rbp), %rax	 # this, _1
 # C:/Program Files/CodeBlocks/MinGW/lib/gcc/x86_64-w64-mingw32/8.1.0/include/c++/bits/stl_vector.h:296: 	return __n != 0 ? _Tr::allocate(_M_impl, __n) : pointer();
	movq	24(%rbp), %rdx	 # __n, tmp90
	movq	%rax, %rcx	 # _1,
	call	_ZNSt16allocator_traitsISaIiEE8allocateERS0_y	 #
 # C:/Program Files/CodeBlocks/MinGW/lib/gcc/x86_64-w64-mingw32/8.1.0/include/c++/bits/stl_vector.h:296: 	return __n != 0 ? _Tr::allocate(_M_impl, __n) : pointer();
	jmp	.L77	 #
.L75:
 # C:/Program Files/CodeBlocks/MinGW/lib/gcc/x86_64-w64-mingw32/8.1.0/include/c++/bits/stl_vector.h:296: 	return __n != 0 ? _Tr::allocate(_M_impl, __n) : pointer();
	movl	$0, %eax	 #, _8
.L77:
 # C:/Program Files/CodeBlocks/MinGW/lib/gcc/x86_64-w64-mingw32/8.1.0/include/c++/bits/stl_vector.h:297:       }
	addq	$32, %rsp	 #,
	popq	%rbp	 #
	ret	
	.seh_endproc
	.section	.text$_ZSt34__uninitialized_move_if_noexcept_aIPiS0_SaIiEET0_T_S3_S2_RT1_,"x"
	.linkonce discard
	.globl	_ZSt34__uninitialized_move_if_noexcept_aIPiS0_SaIiEET0_T_S3_S2_RT1_
	.def	_ZSt34__uninitialized_move_if_noexcept_aIPiS0_SaIiEET0_T_S3_S2_RT1_;	.scl	2;	.type	32;	.endef
	.seh_proc	_ZSt34__uninitialized_move_if_noexcept_aIPiS0_SaIiEET0_T_S3_S2_RT1_
_ZSt34__uninitialized_move_if_noexcept_aIPiS0_SaIiEET0_T_S3_S2_RT1_:
.LFB9901:
	pushq	%rbp	 #
	.seh_pushreg	%rbp
	pushq	%rbx	 #
	.seh_pushreg	%rbx
	subq	$40, %rsp	 #,
	.seh_stackalloc	40
	leaq	128(%rsp), %rbp	 #,
	.seh_setframe	%rbp, 128
	.seh_endprologue
	movq	%rcx, -64(%rbp)	 # __first, __first
	movq	%rdx, -56(%rbp)	 # __last, __last
	movq	%r8, -48(%rbp)	 # __result, __result
	movq	%r9, -40(%rbp)	 # __alloc, __alloc
 # C:/Program Files/CodeBlocks/MinGW/lib/gcc/x86_64-w64-mingw32/8.1.0/include/c++/bits/stl_uninitialized.h:311: 	(_GLIBCXX_MAKE_MOVE_IF_NOEXCEPT_ITERATOR(__first),
	movq	-56(%rbp), %rax	 # __last, tmp91
	movq	%rax, %rcx	 # tmp91,
	call	_ZSt32__make_move_if_noexcept_iteratorIiSt13move_iteratorIPiEET0_PT_	 #
	movq	%rax, %rbx	 #, D.179320
	movq	-64(%rbp), %rcx	 # __first,
	call	_ZSt32__make_move_if_noexcept_iteratorIiSt13move_iteratorIPiEET0_PT_	 #
	movq	%rax, %rcx	 #, D.179321
	movq	-40(%rbp), %rdx	 # __alloc, tmp92
	movq	-48(%rbp), %rax	 # __result, tmp93
	movq	%rdx, %r9	 # tmp92,
	movq	%rax, %r8	 # tmp93,
	movq	%rbx, %rdx	 # D.179320,
	call	_ZSt22__uninitialized_copy_aISt13move_iteratorIPiES1_iET0_T_S4_S3_RSaIT1_E	 #
 # C:/Program Files/CodeBlocks/MinGW/lib/gcc/x86_64-w64-mingw32/8.1.0/include/c++/bits/stl_uninitialized.h:313:     }
	addq	$40, %rsp	 #,
	popq	%rbx	 #
	popq	%rbp	 #
	ret	
	.seh_endproc
	.section	.text$_ZNSt16allocator_traitsISaIiEE7destroyIiEEvRS0_PT_,"x"
	.linkonce discard
	.globl	_ZNSt16allocator_traitsISaIiEE7destroyIiEEvRS0_PT_
	.def	_ZNSt16allocator_traitsISaIiEE7destroyIiEEvRS0_PT_;	.scl	2;	.type	32;	.endef
	.seh_proc	_ZNSt16allocator_traitsISaIiEE7destroyIiEEvRS0_PT_
_ZNSt16allocator_traitsISaIiEE7destroyIiEEvRS0_PT_:
.LFB9902:
	pushq	%rbp	 #
	.seh_pushreg	%rbp
	movq	%rsp, %rbp	 #,
	.seh_setframe	%rbp, 0
	subq	$32, %rsp	 #,
	.seh_stackalloc	32
	.seh_endprologue
	movq	%rcx, 16(%rbp)	 # __a, __a
	movq	%rdx, 24(%rbp)	 # __p, __p
 # C:/Program Files/CodeBlocks/MinGW/lib/gcc/x86_64-w64-mingw32/8.1.0/include/c++/bits/alloc_traits.h:487: 	{ __a.destroy(__p); }
	movq	24(%rbp), %rax	 # __p, tmp87
	movq	%rax, %rdx	 # tmp87,
	movq	16(%rbp), %rcx	 # __a,
	call	_ZN9__gnu_cxx13new_allocatorIiE7destroyIiEEvPT_	 #
 # C:/Program Files/CodeBlocks/MinGW/lib/gcc/x86_64-w64-mingw32/8.1.0/include/c++/bits/alloc_traits.h:487: 	{ __a.destroy(__p); }
	nop	
	addq	$32, %rsp	 #,
	popq	%rbp	 #
	ret	
	.seh_endproc
	.section	.text$_ZN9__gnu_cxx13new_allocatorIiEC2Ev,"x"
	.linkonce discard
	.align 2
	.globl	_ZN9__gnu_cxx13new_allocatorIiEC2Ev
	.def	_ZN9__gnu_cxx13new_allocatorIiEC2Ev;	.scl	2;	.type	32;	.endef
	.seh_proc	_ZN9__gnu_cxx13new_allocatorIiEC2Ev
_ZN9__gnu_cxx13new_allocatorIiEC2Ev:
.LFB9975:
	pushq	%rbp	 #
	.seh_pushreg	%rbp
	movq	%rsp, %rbp	 #,
	.seh_setframe	%rbp, 0
	.seh_endprologue
	movq	%rcx, 16(%rbp)	 # this, this
 # C:/Program Files/CodeBlocks/MinGW/lib/gcc/x86_64-w64-mingw32/8.1.0/include/c++/ext/new_allocator.h:79:       new_allocator() _GLIBCXX_USE_NOEXCEPT { }
	nop	
	popq	%rbp	 #
	ret	
	.seh_endproc
	.section	.text$_ZN9__gnu_cxx13new_allocatorIiE10deallocateEPiy,"x"
	.linkonce discard
	.align 2
	.globl	_ZN9__gnu_cxx13new_allocatorIiE10deallocateEPiy
	.def	_ZN9__gnu_cxx13new_allocatorIiE10deallocateEPiy;	.scl	2;	.type	32;	.endef
	.seh_proc	_ZN9__gnu_cxx13new_allocatorIiE10deallocateEPiy
_ZN9__gnu_cxx13new_allocatorIiE10deallocateEPiy:
.LFB9977:
	pushq	%rbp	 #
	.seh_pushreg	%rbp
	movq	%rsp, %rbp	 #,
	.seh_setframe	%rbp, 0
	subq	$32, %rsp	 #,
	.seh_stackalloc	32
	.seh_endprologue
	movq	%rcx, 16(%rbp)	 # this, this
	movq	%rdx, 24(%rbp)	 # __p, __p
	movq	%r8, 32(%rbp)	 # D.151428, D.151428
 # C:/Program Files/CodeBlocks/MinGW/lib/gcc/x86_64-w64-mingw32/8.1.0/include/c++/ext/new_allocator.h:125: 	::operator delete(__p);
	movq	24(%rbp), %rax	 # __p, tmp87
	movq	%rax, %rcx	 # tmp87,
	call	_ZdlPv	 #
 # C:/Program Files/CodeBlocks/MinGW/lib/gcc/x86_64-w64-mingw32/8.1.0/include/c++/ext/new_allocator.h:126:       }
	nop	
	addq	$32, %rsp	 #,
	popq	%rbp	 #
	ret	
	.seh_endproc
	.section	.text$_ZNKSt6vectorIiSaIiEE8max_sizeEv,"x"
	.linkonce discard
	.align 2
	.globl	_ZNKSt6vectorIiSaIiEE8max_sizeEv
	.def	_ZNKSt6vectorIiSaIiEE8max_sizeEv;	.scl	2;	.type	32;	.endef
	.seh_proc	_ZNKSt6vectorIiSaIiEE8max_sizeEv
_ZNKSt6vectorIiSaIiEE8max_sizeEv:
.LFB9978:
	pushq	%rbp	 #
	.seh_pushreg	%rbp
	movq	%rsp, %rbp	 #,
	.seh_setframe	%rbp, 0
	subq	$32, %rsp	 #,
	.seh_stackalloc	32
	.seh_endprologue
	movq	%rcx, 16(%rbp)	 # this, this
 # C:/Program Files/CodeBlocks/MinGW/lib/gcc/x86_64-w64-mingw32/8.1.0/include/c++/bits/stl_vector.h:811:       { return _Alloc_traits::max_size(_M_get_Tp_allocator()); }
	movq	16(%rbp), %rax	 # this, _1
	movq	%rax, %rcx	 # _1,
	call	_ZNKSt12_Vector_baseIiSaIiEE19_M_get_Tp_allocatorEv	 #
 # C:/Program Files/CodeBlocks/MinGW/lib/gcc/x86_64-w64-mingw32/8.1.0/include/c++/bits/stl_vector.h:811:       { return _Alloc_traits::max_size(_M_get_Tp_allocator()); }
	movq	%rax, %rcx	 # _2,
	call	_ZNSt16allocator_traitsISaIiEE8max_sizeERKS0_	 #
 # C:/Program Files/CodeBlocks/MinGW/lib/gcc/x86_64-w64-mingw32/8.1.0/include/c++/bits/stl_vector.h:811:       { return _Alloc_traits::max_size(_M_get_Tp_allocator()); }
	addq	$32, %rsp	 #,
	popq	%rbp	 #
	ret	
	.seh_endproc
	.section	.text$_ZNKSt6vectorIiSaIiEE4sizeEv,"x"
	.linkonce discard
	.align 2
	.globl	_ZNKSt6vectorIiSaIiEE4sizeEv
	.def	_ZNKSt6vectorIiSaIiEE4sizeEv;	.scl	2;	.type	32;	.endef
	.seh_proc	_ZNKSt6vectorIiSaIiEE4sizeEv
_ZNKSt6vectorIiSaIiEE4sizeEv:
.LFB9979:
	pushq	%rbp	 #
	.seh_pushreg	%rbp
	movq	%rsp, %rbp	 #,
	.seh_setframe	%rbp, 0
	.seh_endprologue
	movq	%rcx, 16(%rbp)	 # this, this
 # C:/Program Files/CodeBlocks/MinGW/lib/gcc/x86_64-w64-mingw32/8.1.0/include/c++/bits/stl_vector.h:806:       { return size_type(this->_M_impl._M_finish - this->_M_impl._M_start); }
	movq	16(%rbp), %rax	 # this, tmp93
	movq	8(%rax), %rdx	 # this_6(D)->D.152462._M_impl._M_finish, _1
 # C:/Program Files/CodeBlocks/MinGW/lib/gcc/x86_64-w64-mingw32/8.1.0/include/c++/bits/stl_vector.h:806:       { return size_type(this->_M_impl._M_finish - this->_M_impl._M_start); }
	movq	16(%rbp), %rax	 # this, tmp94
	movq	(%rax), %rax	 # this_6(D)->D.152462._M_impl._M_start, _2
 # C:/Program Files/CodeBlocks/MinGW/lib/gcc/x86_64-w64-mingw32/8.1.0/include/c++/bits/stl_vector.h:806:       { return size_type(this->_M_impl._M_finish - this->_M_impl._M_start); }
	subq	%rax, %rdx	 # _2, _1
	movq	%rdx, %rax	 # _1, _3
	sarq	$2, %rax	 #, tmp95
 # C:/Program Files/CodeBlocks/MinGW/lib/gcc/x86_64-w64-mingw32/8.1.0/include/c++/bits/stl_vector.h:806:       { return size_type(this->_M_impl._M_finish - this->_M_impl._M_start); }
	popq	%rbp	 #
	ret	
	.seh_endproc
	.section	.text$_ZNSt16allocator_traitsISaIiEE8allocateERS0_y,"x"
	.linkonce discard
	.globl	_ZNSt16allocator_traitsISaIiEE8allocateERS0_y
	.def	_ZNSt16allocator_traitsISaIiEE8allocateERS0_y;	.scl	2;	.type	32;	.endef
	.seh_proc	_ZNSt16allocator_traitsISaIiEE8allocateERS0_y
_ZNSt16allocator_traitsISaIiEE8allocateERS0_y:
.LFB9980:
	pushq	%rbp	 #
	.seh_pushreg	%rbp
	movq	%rsp, %rbp	 #,
	.seh_setframe	%rbp, 0
	subq	$32, %rsp	 #,
	.seh_stackalloc	32
	.seh_endprologue
	movq	%rcx, 16(%rbp)	 # __a, __a
	movq	%rdx, 24(%rbp)	 # __n, __n
 # C:/Program Files/CodeBlocks/MinGW/lib/gcc/x86_64-w64-mingw32/8.1.0/include/c++/bits/alloc_traits.h:436:       { return __a.allocate(__n); }
	movq	24(%rbp), %rax	 # __n, tmp89
	movl	$0, %r8d	 #,
	movq	%rax, %rdx	 # tmp89,
	movq	16(%rbp), %rcx	 # __a,
	call	_ZN9__gnu_cxx13new_allocatorIiE8allocateEyPKv	 #
 # C:/Program Files/CodeBlocks/MinGW/lib/gcc/x86_64-w64-mingw32/8.1.0/include/c++/bits/alloc_traits.h:436:       { return __a.allocate(__n); }
	addq	$32, %rsp	 #,
	popq	%rbp	 #
	ret	
	.seh_endproc
	.section	.text$_ZSt32__make_move_if_noexcept_iteratorIiSt13move_iteratorIPiEET0_PT_,"x"
	.linkonce discard
	.globl	_ZSt32__make_move_if_noexcept_iteratorIiSt13move_iteratorIPiEET0_PT_
	.def	_ZSt32__make_move_if_noexcept_iteratorIiSt13move_iteratorIPiEET0_PT_;	.scl	2;	.type	32;	.endef
	.seh_proc	_ZSt32__make_move_if_noexcept_iteratorIiSt13move_iteratorIPiEET0_PT_
_ZSt32__make_move_if_noexcept_iteratorIiSt13move_iteratorIPiEET0_PT_:
.LFB9981:
	pushq	%rbp	 #
	.seh_pushreg	%rbp
	movq	%rsp, %rbp	 #,
	.seh_setframe	%rbp, 0
	subq	$48, %rsp	 #,
	.seh_stackalloc	48
	.seh_endprologue
	movq	%rcx, 16(%rbp)	 # __i, __i
 # C:/Program Files/CodeBlocks/MinGW/lib/gcc/x86_64-w64-mingw32/8.1.0/include/c++/bits/stl_iterator.h:1216:     { return _ReturnType(__i); }
	leaq	-8(%rbp), %rax	 #, tmp89
	movq	16(%rbp), %rdx	 # __i,
	movq	%rax, %rcx	 # tmp89,
	call	_ZNSt13move_iteratorIPiEC1ES0_	 #
	movq	-8(%rbp), %rax	 # D.178366, D.179324
 # C:/Program Files/CodeBlocks/MinGW/lib/gcc/x86_64-w64-mingw32/8.1.0/include/c++/bits/stl_iterator.h:1216:     { return _ReturnType(__i); }
	addq	$48, %rsp	 #,
	popq	%rbp	 #
	ret	
	.seh_endproc
	.section	.text$_ZSt22__uninitialized_copy_aISt13move_iteratorIPiES1_iET0_T_S4_S3_RSaIT1_E,"x"
	.linkonce discard
	.globl	_ZSt22__uninitialized_copy_aISt13move_iteratorIPiES1_iET0_T_S4_S3_RSaIT1_E
	.def	_ZSt22__uninitialized_copy_aISt13move_iteratorIPiES1_iET0_T_S4_S3_RSaIT1_E;	.scl	2;	.type	32;	.endef
	.seh_proc	_ZSt22__uninitialized_copy_aISt13move_iteratorIPiES1_iET0_T_S4_S3_RSaIT1_E
_ZSt22__uninitialized_copy_aISt13move_iteratorIPiES1_iET0_T_S4_S3_RSaIT1_E:
.LFB9982:
	pushq	%rbp	 #
	.seh_pushreg	%rbp
	movq	%rsp, %rbp	 #,
	.seh_setframe	%rbp, 0
	subq	$32, %rsp	 #,
	.seh_stackalloc	32
	.seh_endprologue
	movq	%rcx, 16(%rbp)	 # __first, __first
	movq	%rdx, 24(%rbp)	 # __last, __last
	movq	%r8, 32(%rbp)	 # __result, __result
	movq	%r9, 40(%rbp)	 # D.176698, D.176698
 # C:/Program Files/CodeBlocks/MinGW/lib/gcc/x86_64-w64-mingw32/8.1.0/include/c++/bits/stl_uninitialized.h:289:     { return std::uninitialized_copy(__first, __last, __result); }
	movq	32(%rbp), %rdx	 # __result, tmp89
	movq	24(%rbp), %rax	 # __last, tmp90
	movq	%rdx, %r8	 # tmp89,
	movq	%rax, %rdx	 # tmp90,
	movq	16(%rbp), %rcx	 # __first,
	call	_ZSt18uninitialized_copyISt13move_iteratorIPiES1_ET0_T_S4_S3_	 #
 # C:/Program Files/CodeBlocks/MinGW/lib/gcc/x86_64-w64-mingw32/8.1.0/include/c++/bits/stl_uninitialized.h:289:     { return std::uninitialized_copy(__first, __last, __result); }
	addq	$32, %rsp	 #,
	popq	%rbp	 #
	ret	
	.seh_endproc
	.section	.text$_ZN9__gnu_cxx13new_allocatorIiE7destroyIiEEvPT_,"x"
	.linkonce discard
	.align 2
	.globl	_ZN9__gnu_cxx13new_allocatorIiE7destroyIiEEvPT_
	.def	_ZN9__gnu_cxx13new_allocatorIiE7destroyIiEEvPT_;	.scl	2;	.type	32;	.endef
	.seh_proc	_ZN9__gnu_cxx13new_allocatorIiE7destroyIiEEvPT_
_ZN9__gnu_cxx13new_allocatorIiE7destroyIiEEvPT_:
.LFB9983:
	pushq	%rbp	 #
	.seh_pushreg	%rbp
	movq	%rsp, %rbp	 #,
	.seh_setframe	%rbp, 0
	.seh_endprologue
	movq	%rcx, 16(%rbp)	 # this, this
	movq	%rdx, 24(%rbp)	 # __p, __p
 # C:/Program Files/CodeBlocks/MinGW/lib/gcc/x86_64-w64-mingw32/8.1.0/include/c++/ext/new_allocator.h:140: 	destroy(_Up* __p) { __p->~_Up(); }
	nop	
	popq	%rbp	 #
	ret	
	.seh_endproc
	.section	.text$_ZNSt16allocator_traitsISaIiEE8max_sizeERKS0_,"x"
	.linkonce discard
	.globl	_ZNSt16allocator_traitsISaIiEE8max_sizeERKS0_
	.def	_ZNSt16allocator_traitsISaIiEE8max_sizeERKS0_;	.scl	2;	.type	32;	.endef
	.seh_proc	_ZNSt16allocator_traitsISaIiEE8max_sizeERKS0_
_ZNSt16allocator_traitsISaIiEE8max_sizeERKS0_:
.LFB10075:
	pushq	%rbp	 #
	.seh_pushreg	%rbp
	movq	%rsp, %rbp	 #,
	.seh_setframe	%rbp, 0
	subq	$32, %rsp	 #,
	.seh_stackalloc	32
	.seh_endprologue
	movq	%rcx, 16(%rbp)	 # __a, __a
 # C:/Program Files/CodeBlocks/MinGW/lib/gcc/x86_64-w64-mingw32/8.1.0/include/c++/bits/alloc_traits.h:496:       { return __a.max_size(); }
	movq	16(%rbp), %rcx	 # __a,
	call	_ZNK9__gnu_cxx13new_allocatorIiE8max_sizeEv	 #
 # C:/Program Files/CodeBlocks/MinGW/lib/gcc/x86_64-w64-mingw32/8.1.0/include/c++/bits/alloc_traits.h:496:       { return __a.max_size(); }
	addq	$32, %rsp	 #,
	popq	%rbp	 #
	ret	
	.seh_endproc
	.section	.text$_ZNKSt12_Vector_baseIiSaIiEE19_M_get_Tp_allocatorEv,"x"
	.linkonce discard
	.align 2
	.globl	_ZNKSt12_Vector_baseIiSaIiEE19_M_get_Tp_allocatorEv
	.def	_ZNKSt12_Vector_baseIiSaIiEE19_M_get_Tp_allocatorEv;	.scl	2;	.type	32;	.endef
	.seh_proc	_ZNKSt12_Vector_baseIiSaIiEE19_M_get_Tp_allocatorEv
_ZNKSt12_Vector_baseIiSaIiEE19_M_get_Tp_allocatorEv:
.LFB10076:
	pushq	%rbp	 #
	.seh_pushreg	%rbp
	movq	%rsp, %rbp	 #,
	.seh_setframe	%rbp, 0
	.seh_endprologue
	movq	%rcx, 16(%rbp)	 # this, this
 # C:/Program Files/CodeBlocks/MinGW/lib/gcc/x86_64-w64-mingw32/8.1.0/include/c++/bits/stl_vector.h:242:       { return *static_cast<const _Tp_alloc_type*>(&this->_M_impl); }
	movq	16(%rbp), %rax	 # this, _2
 # C:/Program Files/CodeBlocks/MinGW/lib/gcc/x86_64-w64-mingw32/8.1.0/include/c++/bits/stl_vector.h:242:       { return *static_cast<const _Tp_alloc_type*>(&this->_M_impl); }
	popq	%rbp	 #
	ret	
	.seh_endproc
	.section	.text$_ZN9__gnu_cxx13new_allocatorIiE8allocateEyPKv,"x"
	.linkonce discard
	.align 2
	.globl	_ZN9__gnu_cxx13new_allocatorIiE8allocateEyPKv
	.def	_ZN9__gnu_cxx13new_allocatorIiE8allocateEyPKv;	.scl	2;	.type	32;	.endef
	.seh_proc	_ZN9__gnu_cxx13new_allocatorIiE8allocateEyPKv
_ZN9__gnu_cxx13new_allocatorIiE8allocateEyPKv:
.LFB10077:
	pushq	%rbp	 #
	.seh_pushreg	%rbp
	movq	%rsp, %rbp	 #,
	.seh_setframe	%rbp, 0
	subq	$32, %rsp	 #,
	.seh_stackalloc	32
	.seh_endprologue
	movq	%rcx, 16(%rbp)	 # this, this
	movq	%rdx, 24(%rbp)	 # __n, __n
	movq	%r8, 32(%rbp)	 # D.151424, D.151424
 # C:/Program Files/CodeBlocks/MinGW/lib/gcc/x86_64-w64-mingw32/8.1.0/include/c++/ext/new_allocator.h:101: 	if (__n > this->max_size())
	movq	16(%rbp), %rcx	 # this,
	call	_ZNK9__gnu_cxx13new_allocatorIiE8max_sizeEv	 #
	cmpq	%rax, 24(%rbp)	 # _1, __n
	seta	%al	 #, retval.12_7
 # C:/Program Files/CodeBlocks/MinGW/lib/gcc/x86_64-w64-mingw32/8.1.0/include/c++/ext/new_allocator.h:101: 	if (__n > this->max_size())
	testb	%al, %al	 # retval.12_7
	je	.L99	 #,
 # C:/Program Files/CodeBlocks/MinGW/lib/gcc/x86_64-w64-mingw32/8.1.0/include/c++/ext/new_allocator.h:102: 	  std::__throw_bad_alloc();
	call	_ZSt17__throw_bad_allocv	 #
.L99:
 # C:/Program Files/CodeBlocks/MinGW/lib/gcc/x86_64-w64-mingw32/8.1.0/include/c++/ext/new_allocator.h:111: 	return static_cast<_Tp*>(::operator new(__n * sizeof(_Tp)));
	movq	24(%rbp), %rax	 # __n, tmp92
	salq	$2, %rax	 #, _2
	movq	%rax, %rcx	 # _2,
	call	_Znwy	 #
 # C:/Program Files/CodeBlocks/MinGW/lib/gcc/x86_64-w64-mingw32/8.1.0/include/c++/ext/new_allocator.h:112:       }
	addq	$32, %rsp	 #,
	popq	%rbp	 #
	ret	
	.seh_endproc
	.section	.text$_ZNSt13move_iteratorIPiEC1ES0_,"x"
	.linkonce discard
	.align 2
	.globl	_ZNSt13move_iteratorIPiEC1ES0_
	.def	_ZNSt13move_iteratorIPiEC1ES0_;	.scl	2;	.type	32;	.endef
	.seh_proc	_ZNSt13move_iteratorIPiEC1ES0_
_ZNSt13move_iteratorIPiEC1ES0_:
.LFB10080:
	pushq	%rbp	 #
	.seh_pushreg	%rbp
	movq	%rsp, %rbp	 #,
	.seh_setframe	%rbp, 0
	.seh_endprologue
	movq	%rcx, 16(%rbp)	 # this, this
	movq	%rdx, 24(%rbp)	 # __i, __i
 # C:/Program Files/CodeBlocks/MinGW/lib/gcc/x86_64-w64-mingw32/8.1.0/include/c++/bits/stl_iterator.h:1031:       : _M_current(__i) { }
	movq	16(%rbp), %rax	 # this, tmp87
	movq	24(%rbp), %rdx	 # __i, tmp88
	movq	%rdx, (%rax)	 # tmp88, this_2(D)->_M_current
 # C:/Program Files/CodeBlocks/MinGW/lib/gcc/x86_64-w64-mingw32/8.1.0/include/c++/bits/stl_iterator.h:1031:       : _M_current(__i) { }
	nop	
	popq	%rbp	 #
	ret	
	.seh_endproc
	.section	.text$_ZSt18uninitialized_copyISt13move_iteratorIPiES1_ET0_T_S4_S3_,"x"
	.linkonce discard
	.globl	_ZSt18uninitialized_copyISt13move_iteratorIPiES1_ET0_T_S4_S3_
	.def	_ZSt18uninitialized_copyISt13move_iteratorIPiES1_ET0_T_S4_S3_;	.scl	2;	.type	32;	.endef
	.seh_proc	_ZSt18uninitialized_copyISt13move_iteratorIPiES1_ET0_T_S4_S3_
_ZSt18uninitialized_copyISt13move_iteratorIPiES1_ET0_T_S4_S3_:
.LFB10081:
	pushq	%rbp	 #
	.seh_pushreg	%rbp
	movq	%rsp, %rbp	 #,
	.seh_setframe	%rbp, 0
	subq	$48, %rsp	 #,
	.seh_stackalloc	48
	.seh_endprologue
	movq	%rcx, 16(%rbp)	 # __first, __first
	movq	%rdx, 24(%rbp)	 # __last, __last
	movq	%r8, 32(%rbp)	 # __result, __result
 # C:/Program Files/CodeBlocks/MinGW/lib/gcc/x86_64-w64-mingw32/8.1.0/include/c++/bits/stl_uninitialized.h:128:       const bool __assignable = is_assignable<_RefType2, _RefType1>::value;
	movb	$1, -1(%rbp)	 #, __assignable
 # C:/Program Files/CodeBlocks/MinGW/lib/gcc/x86_64-w64-mingw32/8.1.0/include/c++/bits/stl_uninitialized.h:134: 	__uninit_copy(__first, __last, __result);
	movq	32(%rbp), %rdx	 # __result, tmp89
	movq	24(%rbp), %rax	 # __last, tmp90
	movq	%rdx, %r8	 # tmp89,
	movq	%rax, %rdx	 # tmp90,
	movq	16(%rbp), %rcx	 # __first,
	call	_ZNSt20__uninitialized_copyILb1EE13__uninit_copyISt13move_iteratorIPiES3_EET0_T_S6_S5_	 #
 # C:/Program Files/CodeBlocks/MinGW/lib/gcc/x86_64-w64-mingw32/8.1.0/include/c++/bits/stl_uninitialized.h:135:     }
	addq	$48, %rsp	 #,
	popq	%rbp	 #
	ret	
	.seh_endproc
	.section	.text$_ZNK9__gnu_cxx13new_allocatorIiE8max_sizeEv,"x"
	.linkonce discard
	.align 2
	.globl	_ZNK9__gnu_cxx13new_allocatorIiE8max_sizeEv
	.def	_ZNK9__gnu_cxx13new_allocatorIiE8max_sizeEv;	.scl	2;	.type	32;	.endef
	.seh_proc	_ZNK9__gnu_cxx13new_allocatorIiE8max_sizeEv
_ZNK9__gnu_cxx13new_allocatorIiE8max_sizeEv:
.LFB10139:
	pushq	%rbp	 #
	.seh_pushreg	%rbp
	movq	%rsp, %rbp	 #,
	.seh_setframe	%rbp, 0
	.seh_endprologue
	movq	%rcx, 16(%rbp)	 # this, this
 # C:/Program Files/CodeBlocks/MinGW/lib/gcc/x86_64-w64-mingw32/8.1.0/include/c++/ext/new_allocator.h:130:       { return size_t(-1) / sizeof(_Tp); }
	movabsq	$4611686018427387903, %rax	 #, _1
 # C:/Program Files/CodeBlocks/MinGW/lib/gcc/x86_64-w64-mingw32/8.1.0/include/c++/ext/new_allocator.h:130:       { return size_t(-1) / sizeof(_Tp); }
	popq	%rbp	 #
	ret	
	.seh_endproc
	.section	.text$_ZNSt20__uninitialized_copyILb1EE13__uninit_copyISt13move_iteratorIPiES3_EET0_T_S6_S5_,"x"
	.linkonce discard
	.globl	_ZNSt20__uninitialized_copyILb1EE13__uninit_copyISt13move_iteratorIPiES3_EET0_T_S6_S5_
	.def	_ZNSt20__uninitialized_copyILb1EE13__uninit_copyISt13move_iteratorIPiES3_EET0_T_S6_S5_;	.scl	2;	.type	32;	.endef
	.seh_proc	_ZNSt20__uninitialized_copyILb1EE13__uninit_copyISt13move_iteratorIPiES3_EET0_T_S6_S5_
_ZNSt20__uninitialized_copyILb1EE13__uninit_copyISt13move_iteratorIPiES3_EET0_T_S6_S5_:
.LFB10140:
	pushq	%rbp	 #
	.seh_pushreg	%rbp
	movq	%rsp, %rbp	 #,
	.seh_setframe	%rbp, 0
	subq	$32, %rsp	 #,
	.seh_stackalloc	32
	.seh_endprologue
	movq	%rcx, 16(%rbp)	 # __first, __first
	movq	%rdx, 24(%rbp)	 # __last, __last
	movq	%r8, 32(%rbp)	 # __result, __result
 # C:/Program Files/CodeBlocks/MinGW/lib/gcc/x86_64-w64-mingw32/8.1.0/include/c++/bits/stl_uninitialized.h:101:         { return std::copy(__first, __last, __result); }
	movq	32(%rbp), %rdx	 # __result, tmp89
	movq	24(%rbp), %rax	 # __last, tmp90
	movq	%rdx, %r8	 # tmp89,
	movq	%rax, %rdx	 # tmp90,
	movq	16(%rbp), %rcx	 # __first,
	call	_ZSt4copyISt13move_iteratorIPiES1_ET0_T_S4_S3_	 #
 # C:/Program Files/CodeBlocks/MinGW/lib/gcc/x86_64-w64-mingw32/8.1.0/include/c++/bits/stl_uninitialized.h:101:         { return std::copy(__first, __last, __result); }
	addq	$32, %rsp	 #,
	popq	%rbp	 #
	ret	
	.seh_endproc
	.section	.text$_ZSt4copyISt13move_iteratorIPiES1_ET0_T_S4_S3_,"x"
	.linkonce discard
	.globl	_ZSt4copyISt13move_iteratorIPiES1_ET0_T_S4_S3_
	.def	_ZSt4copyISt13move_iteratorIPiES1_ET0_T_S4_S3_;	.scl	2;	.type	32;	.endef
	.seh_proc	_ZSt4copyISt13move_iteratorIPiES1_ET0_T_S4_S3_
_ZSt4copyISt13move_iteratorIPiES1_ET0_T_S4_S3_:
.LFB10160:
	pushq	%rbp	 #
	.seh_pushreg	%rbp
	pushq	%rbx	 #
	.seh_pushreg	%rbx
	subq	$40, %rsp	 #,
	.seh_stackalloc	40
	leaq	128(%rsp), %rbp	 #,
	.seh_setframe	%rbp, 128
	.seh_endprologue
	movq	%rcx, -64(%rbp)	 # __first, __first
	movq	%rdx, -56(%rbp)	 # __last, __last
	movq	%r8, -48(%rbp)	 # __result, __result
 # C:/Program Files/CodeBlocks/MinGW/lib/gcc/x86_64-w64-mingw32/8.1.0/include/c++/bits/stl_algobase.h:455: 	      (std::__miter_base(__first), std::__miter_base(__last),
	movq	-56(%rbp), %rax	 # __last, tmp91
	movq	%rax, %rcx	 # tmp91,
	call	_ZSt12__miter_baseIPiEDTcl12__miter_basecldtfp_4baseEEESt13move_iteratorIT_E	 #
	movq	%rax, %rbx	 #, _1
	movq	-64(%rbp), %rcx	 # __first,
	call	_ZSt12__miter_baseIPiEDTcl12__miter_basecldtfp_4baseEEESt13move_iteratorIT_E	 #
	movq	%rax, %rcx	 #, _2
	movq	-48(%rbp), %rax	 # __result, tmp92
	movq	%rax, %r8	 # tmp92,
	movq	%rbx, %rdx	 # _1,
	call	_ZSt14__copy_move_a2ILb1EPiS0_ET1_T0_S2_S1_	 #
 # C:/Program Files/CodeBlocks/MinGW/lib/gcc/x86_64-w64-mingw32/8.1.0/include/c++/bits/stl_algobase.h:457:     }
	addq	$40, %rsp	 #,
	popq	%rbx	 #
	popq	%rbp	 #
	ret	
	.seh_endproc
	.section	.text$_ZSt12__miter_baseIPiEDTcl12__miter_basecldtfp_4baseEEESt13move_iteratorIT_E,"x"
	.linkonce discard
	.globl	_ZSt12__miter_baseIPiEDTcl12__miter_basecldtfp_4baseEEESt13move_iteratorIT_E
	.def	_ZSt12__miter_baseIPiEDTcl12__miter_basecldtfp_4baseEEESt13move_iteratorIT_E;	.scl	2;	.type	32;	.endef
	.seh_proc	_ZSt12__miter_baseIPiEDTcl12__miter_basecldtfp_4baseEEESt13move_iteratorIT_E
_ZSt12__miter_baseIPiEDTcl12__miter_basecldtfp_4baseEEESt13move_iteratorIT_E:
.LFB10165:
	pushq	%rbp	 #
	.seh_pushreg	%rbp
	movq	%rsp, %rbp	 #,
	.seh_setframe	%rbp, 0
	subq	$32, %rsp	 #,
	.seh_stackalloc	32
	.seh_endprologue
	movq	%rcx, 16(%rbp)	 # __it, __it
 # C:/Program Files/CodeBlocks/MinGW/lib/gcc/x86_64-w64-mingw32/8.1.0/include/c++/bits/stl_iterator.h:1237:     { return __miter_base(__it.base()); }
	leaq	16(%rbp), %rcx	 #,
	call	_ZNKSt13move_iteratorIPiE4baseEv	 #
	movq	%rax, %rcx	 # _1,
	call	_ZSt12__miter_baseIPiET_S1_	 #
 # C:/Program Files/CodeBlocks/MinGW/lib/gcc/x86_64-w64-mingw32/8.1.0/include/c++/bits/stl_iterator.h:1237:     { return __miter_base(__it.base()); }
	addq	$32, %rsp	 #,
	popq	%rbp	 #
	ret	
	.seh_endproc
	.section	.text$_ZSt14__copy_move_a2ILb1EPiS0_ET1_T0_S2_S1_,"x"
	.linkonce discard
	.globl	_ZSt14__copy_move_a2ILb1EPiS0_ET1_T0_S2_S1_
	.def	_ZSt14__copy_move_a2ILb1EPiS0_ET1_T0_S2_S1_;	.scl	2;	.type	32;	.endef
	.seh_proc	_ZSt14__copy_move_a2ILb1EPiS0_ET1_T0_S2_S1_
_ZSt14__copy_move_a2ILb1EPiS0_ET1_T0_S2_S1_:
.LFB10166:
	pushq	%rbp	 #
	.seh_pushreg	%rbp
	pushq	%rsi	 #
	.seh_pushreg	%rsi
	pushq	%rbx	 #
	.seh_pushreg	%rbx
	movq	%rsp, %rbp	 #,
	.seh_setframe	%rbp, 0
	subq	$32, %rsp	 #,
	.seh_stackalloc	32
	.seh_endprologue
	movq	%rcx, 32(%rbp)	 # __first, __first
	movq	%rdx, 40(%rbp)	 # __last, __last
	movq	%r8, 48(%rbp)	 # __result, __result
 # C:/Program Files/CodeBlocks/MinGW/lib/gcc/x86_64-w64-mingw32/8.1.0/include/c++/bits/stl_algobase.h:422:       return _OI(std::__copy_move_a<_IsMove>(std::__niter_base(__first),
	movq	48(%rbp), %rax	 # __result, tmp92
	movq	%rax, %rcx	 # tmp92,
	call	_ZSt12__niter_baseIPiET_S1_	 #
	movq	%rax, %rsi	 #, _1
	movq	40(%rbp), %rax	 # __last, tmp93
	movq	%rax, %rcx	 # tmp93,
	call	_ZSt12__niter_baseIPiET_S1_	 #
	movq	%rax, %rbx	 #, _2
	movq	32(%rbp), %rcx	 # __first,
	call	_ZSt12__niter_baseIPiET_S1_	 #
	movq	%rsi, %r8	 # _1,
	movq	%rbx, %rdx	 # _2,
	movq	%rax, %rcx	 # _3,
	call	_ZSt13__copy_move_aILb1EPiS0_ET1_T0_S2_S1_	 #
 # C:/Program Files/CodeBlocks/MinGW/lib/gcc/x86_64-w64-mingw32/8.1.0/include/c++/bits/stl_algobase.h:425:     }
	addq	$32, %rsp	 #,
	popq	%rbx	 #
	popq	%rsi	 #
	popq	%rbp	 #
	ret	
	.seh_endproc
	.section	.text$_ZNKSt13move_iteratorIPiE4baseEv,"x"
	.linkonce discard
	.align 2
	.globl	_ZNKSt13move_iteratorIPiE4baseEv
	.def	_ZNKSt13move_iteratorIPiE4baseEv;	.scl	2;	.type	32;	.endef
	.seh_proc	_ZNKSt13move_iteratorIPiE4baseEv
_ZNKSt13move_iteratorIPiE4baseEv:
.LFB10167:
	pushq	%rbp	 #
	.seh_pushreg	%rbp
	movq	%rsp, %rbp	 #,
	.seh_setframe	%rbp, 0
	.seh_endprologue
	movq	%rcx, 16(%rbp)	 # this, this
 # C:/Program Files/CodeBlocks/MinGW/lib/gcc/x86_64-w64-mingw32/8.1.0/include/c++/bits/stl_iterator.h:1040:       { return _M_current; }
	movq	16(%rbp), %rax	 # this, tmp89
	movq	(%rax), %rax	 # this_2(D)->_M_current, _3
 # C:/Program Files/CodeBlocks/MinGW/lib/gcc/x86_64-w64-mingw32/8.1.0/include/c++/bits/stl_iterator.h:1040:       { return _M_current; }
	popq	%rbp	 #
	ret	
	.seh_endproc
	.section	.text$_ZSt12__miter_baseIPiET_S1_,"x"
	.linkonce discard
	.globl	_ZSt12__miter_baseIPiET_S1_
	.def	_ZSt12__miter_baseIPiET_S1_;	.scl	2;	.type	32;	.endef
	.seh_proc	_ZSt12__miter_baseIPiET_S1_
_ZSt12__miter_baseIPiET_S1_:
.LFB10168:
	pushq	%rbp	 #
	.seh_pushreg	%rbp
	movq	%rsp, %rbp	 #,
	.seh_setframe	%rbp, 0
	.seh_endprologue
	movq	%rcx, 16(%rbp)	 # __it, __it
 # C:/Program Files/CodeBlocks/MinGW/lib/gcc/x86_64-w64-mingw32/8.1.0/include/c++/bits/cpp_type_traits.h:409:     { return __it; }
	movq	16(%rbp), %rax	 # __it, _2
 # C:/Program Files/CodeBlocks/MinGW/lib/gcc/x86_64-w64-mingw32/8.1.0/include/c++/bits/cpp_type_traits.h:409:     { return __it; }
	popq	%rbp	 #
	ret	
	.seh_endproc
	.section	.text$_ZSt12__niter_baseIPiET_S1_,"x"
	.linkonce discard
	.globl	_ZSt12__niter_baseIPiET_S1_
	.def	_ZSt12__niter_baseIPiET_S1_;	.scl	2;	.type	32;	.endef
	.seh_proc	_ZSt12__niter_baseIPiET_S1_
_ZSt12__niter_baseIPiET_S1_:
.LFB10169:
	pushq	%rbp	 #
	.seh_pushreg	%rbp
	movq	%rsp, %rbp	 #,
	.seh_setframe	%rbp, 0
	.seh_endprologue
	movq	%rcx, 16(%rbp)	 # __it, __it
 # C:/Program Files/CodeBlocks/MinGW/lib/gcc/x86_64-w64-mingw32/8.1.0/include/c++/bits/stl_algobase.h:278:     { return __it; }
	movq	16(%rbp), %rax	 # __it, _2
 # C:/Program Files/CodeBlocks/MinGW/lib/gcc/x86_64-w64-mingw32/8.1.0/include/c++/bits/stl_algobase.h:278:     { return __it; }
	popq	%rbp	 #
	ret	
	.seh_endproc
	.section	.text$_ZSt13__copy_move_aILb1EPiS0_ET1_T0_S2_S1_,"x"
	.linkonce discard
	.globl	_ZSt13__copy_move_aILb1EPiS0_ET1_T0_S2_S1_
	.def	_ZSt13__copy_move_aILb1EPiS0_ET1_T0_S2_S1_;	.scl	2;	.type	32;	.endef
	.seh_proc	_ZSt13__copy_move_aILb1EPiS0_ET1_T0_S2_S1_
_ZSt13__copy_move_aILb1EPiS0_ET1_T0_S2_S1_:
.LFB10170:
	pushq	%rbp	 #
	.seh_pushreg	%rbp
	movq	%rsp, %rbp	 #,
	.seh_setframe	%rbp, 0
	subq	$48, %rsp	 #,
	.seh_stackalloc	48
	.seh_endprologue
	movq	%rcx, 16(%rbp)	 # __first, __first
	movq	%rdx, 24(%rbp)	 # __last, __last
	movq	%r8, 32(%rbp)	 # __result, __result
 # C:/Program Files/CodeBlocks/MinGW/lib/gcc/x86_64-w64-mingw32/8.1.0/include/c++/bits/stl_algobase.h:380:       const bool __simple = (__is_trivial(_ValueTypeI)
	movb	$1, -1(%rbp)	 #, __simple
 # C:/Program Files/CodeBlocks/MinGW/lib/gcc/x86_64-w64-mingw32/8.1.0/include/c++/bits/stl_algobase.h:386: 			      _Category>::__copy_m(__first, __last, __result);
	movq	32(%rbp), %rdx	 # __result, tmp89
	movq	24(%rbp), %rax	 # __last, tmp90
	movq	%rdx, %r8	 # tmp89,
	movq	%rax, %rdx	 # tmp90,
	movq	16(%rbp), %rcx	 # __first,
	call	_ZNSt11__copy_moveILb1ELb1ESt26random_access_iterator_tagE8__copy_mIiEEPT_PKS3_S6_S4_	 #
 # C:/Program Files/CodeBlocks/MinGW/lib/gcc/x86_64-w64-mingw32/8.1.0/include/c++/bits/stl_algobase.h:387:     }
	addq	$48, %rsp	 #,
	popq	%rbp	 #
	ret	
	.seh_endproc
	.section	.text$_ZNSt11__copy_moveILb1ELb1ESt26random_access_iterator_tagE8__copy_mIiEEPT_PKS3_S6_S4_,"x"
	.linkonce discard
	.globl	_ZNSt11__copy_moveILb1ELb1ESt26random_access_iterator_tagE8__copy_mIiEEPT_PKS3_S6_S4_
	.def	_ZNSt11__copy_moveILb1ELb1ESt26random_access_iterator_tagE8__copy_mIiEEPT_PKS3_S6_S4_;	.scl	2;	.type	32;	.endef
	.seh_proc	_ZNSt11__copy_moveILb1ELb1ESt26random_access_iterator_tagE8__copy_mIiEEPT_PKS3_S6_S4_
_ZNSt11__copy_moveILb1ELb1ESt26random_access_iterator_tagE8__copy_mIiEEPT_PKS3_S6_S4_:
.LFB10171:
	pushq	%rbp	 #
	.seh_pushreg	%rbp
	movq	%rsp, %rbp	 #,
	.seh_setframe	%rbp, 0
	subq	$48, %rsp	 #,
	.seh_stackalloc	48
	.seh_endprologue
	movq	%rcx, 16(%rbp)	 # __first, __first
	movq	%rdx, 24(%rbp)	 # __last, __last
	movq	%r8, 32(%rbp)	 # __result, __result
 # C:/Program Files/CodeBlocks/MinGW/lib/gcc/x86_64-w64-mingw32/8.1.0/include/c++/bits/stl_algobase.h:366: 	  const ptrdiff_t _Num = __last - __first;
	movq	24(%rbp), %rax	 # __last, tmp94
	subq	16(%rbp), %rax	 # __first, _1
 # C:/Program Files/CodeBlocks/MinGW/lib/gcc/x86_64-w64-mingw32/8.1.0/include/c++/bits/stl_algobase.h:366: 	  const ptrdiff_t _Num = __last - __first;
	sarq	$2, %rax	 #, tmp95
	movq	%rax, -8(%rbp)	 # tmp95, _Num
 # C:/Program Files/CodeBlocks/MinGW/lib/gcc/x86_64-w64-mingw32/8.1.0/include/c++/bits/stl_algobase.h:367: 	  if (_Num)
	cmpq	$0, -8(%rbp)	 #, _Num
	je	.L123	 #,
 # C:/Program Files/CodeBlocks/MinGW/lib/gcc/x86_64-w64-mingw32/8.1.0/include/c++/bits/stl_algobase.h:368: 	    __builtin_memmove(__result, __first, sizeof(_Tp) * _Num);
	movq	-8(%rbp), %rax	 # _Num, _Num.13_2
	leaq	0(,%rax,4), %rdx	 #, _3
	movq	32(%rbp), %rax	 # __result, tmp96
	movq	%rdx, %r8	 # _3,
	movq	16(%rbp), %rdx	 # __first,
	movq	%rax, %rcx	 # tmp96,
	call	memmove	 #
.L123:
 # C:/Program Files/CodeBlocks/MinGW/lib/gcc/x86_64-w64-mingw32/8.1.0/include/c++/bits/stl_algobase.h:369: 	  return __result + _Num;
	movq	-8(%rbp), %rax	 # _Num, _Num.14_4
	leaq	0(,%rax,4), %rdx	 #, _5
 # C:/Program Files/CodeBlocks/MinGW/lib/gcc/x86_64-w64-mingw32/8.1.0/include/c++/bits/stl_algobase.h:369: 	  return __result + _Num;
	movq	32(%rbp), %rax	 # __result, tmp97
	addq	%rdx, %rax	 # _5, _13
 # C:/Program Files/CodeBlocks/MinGW/lib/gcc/x86_64-w64-mingw32/8.1.0/include/c++/bits/stl_algobase.h:370: 	}
	addq	$48, %rsp	 #,
	popq	%rbp	 #
	ret	
	.seh_endproc
	.text
	.def	__tcf_0;	.scl	3;	.type	32;	.endef
	.seh_proc	__tcf_0
__tcf_0:
.LFB10197:
	pushq	%rbp	 #
	.seh_pushreg	%rbp
	movq	%rsp, %rbp	 #,
	.seh_setframe	%rbp, 0
	subq	$32, %rsp	 #,
	.seh_stackalloc	32
	.seh_endprologue
 # C:/Program Files/CodeBlocks/MinGW/lib/gcc/x86_64-w64-mingw32/8.1.0/include/c++/iostream:74:   static ios_base::Init __ioinit;
	leaq	_ZStL8__ioinit(%rip), %rcx	 #,
	call	_ZNSt8ios_base4InitD1Ev	 #
	nop	
	addq	$32, %rsp	 #,
	popq	%rbp	 #
	ret	
	.seh_endproc
	.def	__tcf_1;	.scl	3;	.type	32;	.endef
	.seh_proc	__tcf_1
__tcf_1:
.LFB10198:
	pushq	%rbp	 #
	.seh_pushreg	%rbp
	pushq	%rbx	 #
	.seh_pushreg	%rbx
	subq	$40, %rsp	 #,
	.seh_stackalloc	40
	leaq	128(%rsp), %rbp	 #,
	.seh_setframe	%rbp, 128
	.seh_endprologue
 # Subordinates.cpp:30: vector<int> G[MAX];
	leaq	4800120+G(%rip), %rbx	 #, _1
.L128:
 # Subordinates.cpp:30: vector<int> G[MAX];
	leaq	G(%rip), %rax	 #, tmp88
	cmpq	%rax, %rbx	 # tmp88, _1
	je	.L126	 #,
 # Subordinates.cpp:30: vector<int> G[MAX];
	subq	$24, %rbx	 #, _1
	movq	%rbx, %rcx	 # _1,
	call	_ZNSt6vectorIiSaIiEED1Ev	 #
	jmp	.L128	 #
.L126:
 # Subordinates.cpp:30: vector<int> G[MAX];
	addq	$40, %rsp	 #,
	popq	%rbx	 #
	popq	%rbp	 #
	ret	
	.seh_endproc
	.def	_Z41__static_initialization_and_destruction_0ii;	.scl	3;	.type	32;	.endef
	.seh_proc	_Z41__static_initialization_and_destruction_0ii
_Z41__static_initialization_and_destruction_0ii:
.LFB10196:
	pushq	%rbp	 #
	.seh_pushreg	%rbp
	pushq	%rsi	 #
	.seh_pushreg	%rsi
	pushq	%rbx	 #
	.seh_pushreg	%rbx
	movq	%rsp, %rbp	 #,
	.seh_setframe	%rbp, 0
	subq	$32, %rsp	 #,
	.seh_stackalloc	32
	.seh_endprologue
	movl	%ecx, 32(%rbp)	 # __initialize_p, __initialize_p
	movl	%edx, 40(%rbp)	 # __priority, __priority
 # Subordinates.cpp:52: }
	cmpl	$1, 32(%rbp)	 #, __initialize_p
	jne	.L133	 #,
 # Subordinates.cpp:52: }
	cmpl	$65535, 40(%rbp)	 #, __priority
	jne	.L133	 #,
 # C:/Program Files/CodeBlocks/MinGW/lib/gcc/x86_64-w64-mingw32/8.1.0/include/c++/iostream:74:   static ios_base::Init __ioinit;
	leaq	_ZStL8__ioinit(%rip), %rcx	 #,
	call	_ZNSt8ios_base4InitC1Ev	 #
	leaq	__tcf_0(%rip), %rcx	 #,
	call	atexit	 #
 # Subordinates.cpp:30: vector<int> G[MAX];
	leaq	G(%rip), %rax	 #, _13
	movl	$200004, %ebx	 #, _5
	movq	%rax, %rsi	 # _13, _4
.L132:
 # Subordinates.cpp:30: vector<int> G[MAX];
	testq	%rbx, %rbx	 # _5
	js	.L131	 #,
 # Subordinates.cpp:30: vector<int> G[MAX];
	movq	%rsi, %rcx	 # _4,
	call	_ZNSt6vectorIiSaIiEEC1Ev	 #
	addq	$24, %rsi	 #, _4
	subq	$1, %rbx	 #, _5
	jmp	.L132	 #
.L131:
 # Subordinates.cpp:30: vector<int> G[MAX];
	leaq	__tcf_1(%rip), %rcx	 #,
	call	atexit	 #
.L133:
 # Subordinates.cpp:52: }
	nop	
	addq	$32, %rsp	 #,
	popq	%rbx	 #
	popq	%rsi	 #
	popq	%rbp	 #
	ret	
	.seh_endproc
	.def	_GLOBAL__sub_I_p;	.scl	3;	.type	32;	.endef
	.seh_proc	_GLOBAL__sub_I_p
_GLOBAL__sub_I_p:
.LFB10221:
	pushq	%rbp	 #
	.seh_pushreg	%rbp
	movq	%rsp, %rbp	 #,
	.seh_setframe	%rbp, 0
	subq	$32, %rsp	 #,
	.seh_stackalloc	32
	.seh_endprologue
 # Subordinates.cpp:52: }
	movl	$65535, %edx	 #,
	movl	$1, %ecx	 #,
	call	_Z41__static_initialization_and_destruction_0ii	 #
	nop	
	addq	$32, %rsp	 #,
	popq	%rbp	 #
	ret	
	.seh_endproc
	.section	.ctors,"w"
	.align 8
	.quad	_GLOBAL__sub_I_p
	.ident	"GCC: (x86_64-posix-seh-rev0, Built by MinGW-W64 project) 8.1.0"
	.def	_ZNSirsERi;	.scl	2;	.type	32;	.endef
	.def	_ZNSirsERx;	.scl	2;	.type	32;	.endef
	.def	_ZNSolsEi;	.scl	2;	.type	32;	.endef
	.def	_ZStlsISt11char_traitsIcEERSt13basic_ostreamIcT_ES5_c;	.scl	2;	.type	32;	.endef
	.def	__cxa_begin_catch;	.scl	2;	.type	32;	.endef
	.def	__cxa_rethrow;	.scl	2;	.type	32;	.endef
	.def	__cxa_end_catch;	.scl	2;	.type	32;	.endef
	.def	_Unwind_Resume;	.scl	2;	.type	32;	.endef
	.def	_ZSt20__throw_length_errorPKc;	.scl	2;	.type	32;	.endef
	.def	_ZdlPv;	.scl	2;	.type	32;	.endef
	.def	_ZSt17__throw_bad_allocv;	.scl	2;	.type	32;	.endef
	.def	_Znwy;	.scl	2;	.type	32;	.endef
	.def	memmove;	.scl	2;	.type	32;	.endef
	.def	_ZNSt8ios_base4InitD1Ev;	.scl	2;	.type	32;	.endef
	.def	_ZNSt8ios_base4InitC1Ev;	.scl	2;	.type	32;	.endef
	.def	atexit;	.scl	2;	.type	32;	.endef
	.section	.rdata$.refptr._ZSt4cout, "dr"
	.globl	.refptr._ZSt4cout
	.linkonce	discard
.refptr._ZSt4cout:
	.quad	_ZSt4cout
	.section	.rdata$.refptr._ZSt3cin, "dr"
	.globl	.refptr._ZSt3cin
	.linkonce	discard
.refptr._ZSt3cin:
	.quad	_ZSt3cin
